opt subtitle "Microchip Technology Omniscient Code Generator v1.36 (Free mode) build 201601150325"

opt pagewidth 120

	opt lm

	processor	18F4580
porta	equ	0F80h
portb	equ	0F81h
portc	equ	0F82h
portd	equ	0F83h
porte	equ	0F84h
lata	equ	0F89h
latb	equ	0F8Ah
latc	equ	0F8Bh
latd	equ	0F8Ch
late	equ	0F8Dh
trisa	equ	0F92h
trisb	equ	0F93h
trisc	equ	0F94h
trisd	equ	0F95h
trise	equ	0F96h
pie1	equ	0F9Dh
pir1	equ	0F9Eh
ipr1	equ	0F9Fh
pie2	equ	0FA0h
pir2	equ	0FA1h
ipr2	equ	0FA2h
t3con	equ	0FB1h
tmr3l	equ	0FB2h
tmr3h	equ	0FB3h
ccp1con	equ	0FBDh
ccpr1l	equ	0FBEh
ccpr1h	equ	0FBFh
adcon1	equ	0FC1h
adcon0	equ	0FC2h
adresl	equ	0FC3h
adresh	equ	0FC4h
sspcon2	equ	0FC5h
sspcon1	equ	0FC6h
sspstat	equ	0FC7h
sspadd	equ	0FC8h
sspbuf	equ	0FC9h
t2con	equ	0FCAh
pr2	equ	0FCBh
tmr2	equ	0FCCh
t1con	equ	0FCDh
tmr1l	equ	0FCEh
tmr1h	equ	0FCFh
rcon	equ	0FD0h
wdtcon	equ	0FD1h
lvdcon	equ	0FD2h
osccon	equ	0FD3h
t0con	equ	0FD5h
tmr0l	equ	0FD6h
tmr0h	equ	0FD7h
status	equ	0FD8h
fsr2	equ	0FD9h
fsr2l	equ	0FD9h
fsr2h	equ	0FDAh
plusw2	equ	0FDBh
preinc2	equ	0FDCh
postdec2	equ	0FDDh
postinc2	equ	0FDEh
indf2	equ	0FDFh
bsr	equ	0FE0h
fsr1	equ	0FE1h
fsr1l	equ	0FE1h
fsr1h	equ	0FE2h
plusw1	equ	0FE3h
preinc1	equ	0FE4h
postdec1	equ	0FE5h
postinc1	equ	0FE6h
indf1	equ	0FE7h
wreg	equ	0FE8h
fsr0	equ	0FE9h
fsr0l	equ	0FE9h
fsr0h	equ	0FEAh
plusw0	equ	0FEBh
preinc0	equ	0FECh
postdec0	equ	0FEDh
postinc0	equ	0FEEh
indf0	equ	0FEFh
intcon3	equ	0FF0h
intcon2	equ	0FF1h
intcon	equ	0FF2h
prod	equ	0FF3h
prodl	equ	0FF3h
prodh	equ	0FF4h
tablat	equ	0FF5h
tblptr	equ	0FF6h
tblptrl	equ	0FF6h
tblptrh	equ	0FF7h
tblptru	equ	0FF8h
pcl	equ	0FF9h
pclat	equ	0FFAh
pclath	equ	0FFAh
pclatu	equ	0FFBh
stkptr	equ	0FFCh
tosl	equ	0FFDh
tosh	equ	0FFEh
tosu	equ	0FFFh
clrc   macro
	bcf	status,0
endm
setc   macro
	bsf	status,0
endm
clrz   macro
	bcf	status,2
endm
setz   macro
	bsf	status,2
endm
skipnz macro
	btfsc	status,2
endm
skipz  macro
	btfss	status,2
endm
skipnc macro
	btfsc	status,0
endm
skipc  macro
	btfss	status,0
endm
pushw macro
	movwf postinc1
endm
pushf macro arg1
	movff arg1, postinc1
endm
popw macro
	movf postdec1,f
	movf indf1,w
endm
popf macro arg1
	movf postdec1,f
	movff indf1,arg1
endm
popfc macro arg1
	movff plusw1,arg1
	decfsz fsr1,f
endm
	global	__ramtop
	global	__accesstop
# 51 "/opt/microchip/xc8/v1.36/include/pic18f4580.h"
RXF6SIDH equ 0D60h ;# 
# 183 "/opt/microchip/xc8/v1.36/include/pic18f4580.h"
RXF6SIDL equ 0D61h ;# 
# 296 "/opt/microchip/xc8/v1.36/include/pic18f4580.h"
RXF6EIDH equ 0D62h ;# 
# 428 "/opt/microchip/xc8/v1.36/include/pic18f4580.h"
RXF6EIDL equ 0D63h ;# 
# 560 "/opt/microchip/xc8/v1.36/include/pic18f4580.h"
RXF7SIDH equ 0D64h ;# 
# 692 "/opt/microchip/xc8/v1.36/include/pic18f4580.h"
RXF7SIDL equ 0D65h ;# 
# 805 "/opt/microchip/xc8/v1.36/include/pic18f4580.h"
RXF7EIDH equ 0D66h ;# 
# 937 "/opt/microchip/xc8/v1.36/include/pic18f4580.h"
RXF7EIDL equ 0D67h ;# 
# 1069 "/opt/microchip/xc8/v1.36/include/pic18f4580.h"
RXF8SIDH equ 0D68h ;# 
# 1201 "/opt/microchip/xc8/v1.36/include/pic18f4580.h"
RXF8SIDL equ 0D69h ;# 
# 1314 "/opt/microchip/xc8/v1.36/include/pic18f4580.h"
RXF8EIDH equ 0D6Ah ;# 
# 1446 "/opt/microchip/xc8/v1.36/include/pic18f4580.h"
RXF8EIDL equ 0D6Bh ;# 
# 1578 "/opt/microchip/xc8/v1.36/include/pic18f4580.h"
RXF9SIDH equ 0D70h ;# 
# 1710 "/opt/microchip/xc8/v1.36/include/pic18f4580.h"
RXF9SIDL equ 0D71h ;# 
# 1823 "/opt/microchip/xc8/v1.36/include/pic18f4580.h"
RXF9EIDH equ 0D72h ;# 
# 1955 "/opt/microchip/xc8/v1.36/include/pic18f4580.h"
RXF9EIDL equ 0D73h ;# 
# 2087 "/opt/microchip/xc8/v1.36/include/pic18f4580.h"
RXF10SIDH equ 0D74h ;# 
# 2219 "/opt/microchip/xc8/v1.36/include/pic18f4580.h"
RXF10SIDL equ 0D75h ;# 
# 2332 "/opt/microchip/xc8/v1.36/include/pic18f4580.h"
RXF10EIDH equ 0D76h ;# 
# 2464 "/opt/microchip/xc8/v1.36/include/pic18f4580.h"
RXF10EIDL equ 0D77h ;# 
# 2596 "/opt/microchip/xc8/v1.36/include/pic18f4580.h"
RXF11SIDH equ 0D78h ;# 
# 2728 "/opt/microchip/xc8/v1.36/include/pic18f4580.h"
RXF11SIDL equ 0D79h ;# 
# 2841 "/opt/microchip/xc8/v1.36/include/pic18f4580.h"
RXF11EIDH equ 0D7Ah ;# 
# 2973 "/opt/microchip/xc8/v1.36/include/pic18f4580.h"
RXF11EIDL equ 0D7Bh ;# 
# 3105 "/opt/microchip/xc8/v1.36/include/pic18f4580.h"
RXF12SIDH equ 0D80h ;# 
# 3237 "/opt/microchip/xc8/v1.36/include/pic18f4580.h"
RXF12SIDL equ 0D81h ;# 
# 3350 "/opt/microchip/xc8/v1.36/include/pic18f4580.h"
RXF12EIDH equ 0D82h ;# 
# 3482 "/opt/microchip/xc8/v1.36/include/pic18f4580.h"
RXF12EIDL equ 0D83h ;# 
# 3614 "/opt/microchip/xc8/v1.36/include/pic18f4580.h"
RXF13SIDH equ 0D84h ;# 
# 3746 "/opt/microchip/xc8/v1.36/include/pic18f4580.h"
RXF13SIDL equ 0D85h ;# 
# 3859 "/opt/microchip/xc8/v1.36/include/pic18f4580.h"
RXF13EIDH equ 0D86h ;# 
# 3991 "/opt/microchip/xc8/v1.36/include/pic18f4580.h"
RXF13EIDL equ 0D87h ;# 
# 4123 "/opt/microchip/xc8/v1.36/include/pic18f4580.h"
RXF14SIDH equ 0D88h ;# 
# 4255 "/opt/microchip/xc8/v1.36/include/pic18f4580.h"
RXF14SIDL equ 0D89h ;# 
# 4368 "/opt/microchip/xc8/v1.36/include/pic18f4580.h"
RXF14EIDH equ 0D8Ah ;# 
# 4500 "/opt/microchip/xc8/v1.36/include/pic18f4580.h"
RXF14EIDL equ 0D8Bh ;# 
# 4632 "/opt/microchip/xc8/v1.36/include/pic18f4580.h"
RXF15SIDH equ 0D90h ;# 
# 4764 "/opt/microchip/xc8/v1.36/include/pic18f4580.h"
RXF15SIDL equ 0D91h ;# 
# 4877 "/opt/microchip/xc8/v1.36/include/pic18f4580.h"
RXF15EIDH equ 0D92h ;# 
# 5009 "/opt/microchip/xc8/v1.36/include/pic18f4580.h"
RXF15EIDL equ 0D93h ;# 
# 5141 "/opt/microchip/xc8/v1.36/include/pic18f4580.h"
RXFCON0 equ 0DD4h ;# 
# 5202 "/opt/microchip/xc8/v1.36/include/pic18f4580.h"
RXFCON1 equ 0DD5h ;# 
# 5263 "/opt/microchip/xc8/v1.36/include/pic18f4580.h"
SDFLC equ 0DD8h ;# 
# 5338 "/opt/microchip/xc8/v1.36/include/pic18f4580.h"
RXFBCON0 equ 0DE0h ;# 
# 5407 "/opt/microchip/xc8/v1.36/include/pic18f4580.h"
RXFBCON1 equ 0DE1h ;# 
# 5476 "/opt/microchip/xc8/v1.36/include/pic18f4580.h"
RXFBCON2 equ 0DE2h ;# 
# 5545 "/opt/microchip/xc8/v1.36/include/pic18f4580.h"
RXFBCON3 equ 0DE3h ;# 
# 5614 "/opt/microchip/xc8/v1.36/include/pic18f4580.h"
RXFBCON4 equ 0DE4h ;# 
# 5683 "/opt/microchip/xc8/v1.36/include/pic18f4580.h"
RXFBCON5 equ 0DE5h ;# 
# 5752 "/opt/microchip/xc8/v1.36/include/pic18f4580.h"
RXFBCON6 equ 0DE6h ;# 
# 5821 "/opt/microchip/xc8/v1.36/include/pic18f4580.h"
RXFBCON7 equ 0DE7h ;# 
# 5890 "/opt/microchip/xc8/v1.36/include/pic18f4580.h"
MSEL0 equ 0DF0h ;# 
# 5951 "/opt/microchip/xc8/v1.36/include/pic18f4580.h"
MSEL1 equ 0DF1h ;# 
# 6012 "/opt/microchip/xc8/v1.36/include/pic18f4580.h"
MSEL2 equ 0DF2h ;# 
# 6073 "/opt/microchip/xc8/v1.36/include/pic18f4580.h"
MSEL3 equ 0DF3h ;# 
# 6134 "/opt/microchip/xc8/v1.36/include/pic18f4580.h"
BSEL0 equ 0DF8h ;# 
# 6184 "/opt/microchip/xc8/v1.36/include/pic18f4580.h"
BIE0 equ 0DFAh ;# 
# 6262 "/opt/microchip/xc8/v1.36/include/pic18f4580.h"
TXBIE equ 0DFCh ;# 
# 6321 "/opt/microchip/xc8/v1.36/include/pic18f4580.h"
B0CON equ 0E20h ;# 
# 6633 "/opt/microchip/xc8/v1.36/include/pic18f4580.h"
B0SIDH equ 0E21h ;# 
# 6765 "/opt/microchip/xc8/v1.36/include/pic18f4580.h"
B0SIDL equ 0E22h ;# 
# 6892 "/opt/microchip/xc8/v1.36/include/pic18f4580.h"
B0EIDH equ 0E23h ;# 
# 7024 "/opt/microchip/xc8/v1.36/include/pic18f4580.h"
B0EIDL equ 0E24h ;# 
# 7156 "/opt/microchip/xc8/v1.36/include/pic18f4580.h"
B0DLC equ 0E25h ;# 
# 7303 "/opt/microchip/xc8/v1.36/include/pic18f4580.h"
B0D0 equ 0E26h ;# 
# 7364 "/opt/microchip/xc8/v1.36/include/pic18f4580.h"
B0D1 equ 0E27h ;# 
# 7425 "/opt/microchip/xc8/v1.36/include/pic18f4580.h"
B0D2 equ 0E28h ;# 
# 7486 "/opt/microchip/xc8/v1.36/include/pic18f4580.h"
B0D3 equ 0E29h ;# 
# 7547 "/opt/microchip/xc8/v1.36/include/pic18f4580.h"
B0D4 equ 0E2Ah ;# 
# 7608 "/opt/microchip/xc8/v1.36/include/pic18f4580.h"
B0D5 equ 0E2Bh ;# 
# 7669 "/opt/microchip/xc8/v1.36/include/pic18f4580.h"
B0D6 equ 0E2Ch ;# 
# 7730 "/opt/microchip/xc8/v1.36/include/pic18f4580.h"
B0D7 equ 0E2Dh ;# 
# 7791 "/opt/microchip/xc8/v1.36/include/pic18f4580.h"
CANSTAT_RO9 equ 0E2Eh ;# 
# 7884 "/opt/microchip/xc8/v1.36/include/pic18f4580.h"
CANCON_RO9 equ 0E2Fh ;# 
# 7966 "/opt/microchip/xc8/v1.36/include/pic18f4580.h"
B1CON equ 0E30h ;# 
# 8278 "/opt/microchip/xc8/v1.36/include/pic18f4580.h"
B1SIDH equ 0E31h ;# 
# 8410 "/opt/microchip/xc8/v1.36/include/pic18f4580.h"
B1SIDL equ 0E32h ;# 
# 8537 "/opt/microchip/xc8/v1.36/include/pic18f4580.h"
B1EIDH equ 0E33h ;# 
# 8669 "/opt/microchip/xc8/v1.36/include/pic18f4580.h"
B1EIDL equ 0E34h ;# 
# 8801 "/opt/microchip/xc8/v1.36/include/pic18f4580.h"
B1DLC equ 0E35h ;# 
# 8948 "/opt/microchip/xc8/v1.36/include/pic18f4580.h"
B1D0 equ 0E36h ;# 
# 9009 "/opt/microchip/xc8/v1.36/include/pic18f4580.h"
B1D1 equ 0E37h ;# 
# 9070 "/opt/microchip/xc8/v1.36/include/pic18f4580.h"
B1D2 equ 0E38h ;# 
# 9131 "/opt/microchip/xc8/v1.36/include/pic18f4580.h"
B1D3 equ 0E39h ;# 
# 9192 "/opt/microchip/xc8/v1.36/include/pic18f4580.h"
B1D4 equ 0E3Ah ;# 
# 9253 "/opt/microchip/xc8/v1.36/include/pic18f4580.h"
B1D5 equ 0E3Bh ;# 
# 9314 "/opt/microchip/xc8/v1.36/include/pic18f4580.h"
B1D6 equ 0E3Ch ;# 
# 9375 "/opt/microchip/xc8/v1.36/include/pic18f4580.h"
B1D7 equ 0E3Dh ;# 
# 9436 "/opt/microchip/xc8/v1.36/include/pic18f4580.h"
CANSTAT_RO8 equ 0E3Eh ;# 
# 9529 "/opt/microchip/xc8/v1.36/include/pic18f4580.h"
CANCON_RO8 equ 0E3Fh ;# 
# 9611 "/opt/microchip/xc8/v1.36/include/pic18f4580.h"
B2CON equ 0E40h ;# 
# 9923 "/opt/microchip/xc8/v1.36/include/pic18f4580.h"
B2SIDH equ 0E41h ;# 
# 10055 "/opt/microchip/xc8/v1.36/include/pic18f4580.h"
B2SIDL equ 0E42h ;# 
# 10191 "/opt/microchip/xc8/v1.36/include/pic18f4580.h"
B2EIDH equ 0E43h ;# 
# 10323 "/opt/microchip/xc8/v1.36/include/pic18f4580.h"
B2EIDL equ 0E44h ;# 
# 10455 "/opt/microchip/xc8/v1.36/include/pic18f4580.h"
B2DLC equ 0E45h ;# 
# 10602 "/opt/microchip/xc8/v1.36/include/pic18f4580.h"
B2D0 equ 0E46h ;# 
# 10663 "/opt/microchip/xc8/v1.36/include/pic18f4580.h"
B2D1 equ 0E47h ;# 
# 10724 "/opt/microchip/xc8/v1.36/include/pic18f4580.h"
B2D2 equ 0E48h ;# 
# 10785 "/opt/microchip/xc8/v1.36/include/pic18f4580.h"
B2D3 equ 0E49h ;# 
# 10846 "/opt/microchip/xc8/v1.36/include/pic18f4580.h"
B2D4 equ 0E4Ah ;# 
# 10907 "/opt/microchip/xc8/v1.36/include/pic18f4580.h"
B2D5 equ 0E4Bh ;# 
# 10968 "/opt/microchip/xc8/v1.36/include/pic18f4580.h"
B2D6 equ 0E4Ch ;# 
# 11029 "/opt/microchip/xc8/v1.36/include/pic18f4580.h"
B2D7 equ 0E4Dh ;# 
# 11090 "/opt/microchip/xc8/v1.36/include/pic18f4580.h"
CANSTAT_RO7 equ 0E4Eh ;# 
# 11183 "/opt/microchip/xc8/v1.36/include/pic18f4580.h"
CANCON_RO7 equ 0E4Fh ;# 
# 11265 "/opt/microchip/xc8/v1.36/include/pic18f4580.h"
B3CON equ 0E50h ;# 
# 11577 "/opt/microchip/xc8/v1.36/include/pic18f4580.h"
B3SIDH equ 0E51h ;# 
# 11709 "/opt/microchip/xc8/v1.36/include/pic18f4580.h"
B3SIDL equ 0E52h ;# 
# 11845 "/opt/microchip/xc8/v1.36/include/pic18f4580.h"
B3EIDH equ 0E53h ;# 
# 11977 "/opt/microchip/xc8/v1.36/include/pic18f4580.h"
B3EIDL equ 0E54h ;# 
# 12109 "/opt/microchip/xc8/v1.36/include/pic18f4580.h"
B3DLC equ 0E55h ;# 
# 12256 "/opt/microchip/xc8/v1.36/include/pic18f4580.h"
B3D0 equ 0E56h ;# 
# 12317 "/opt/microchip/xc8/v1.36/include/pic18f4580.h"
B3D1 equ 0E57h ;# 
# 12378 "/opt/microchip/xc8/v1.36/include/pic18f4580.h"
B3D2 equ 0E58h ;# 
# 12439 "/opt/microchip/xc8/v1.36/include/pic18f4580.h"
B3D3 equ 0E59h ;# 
# 12500 "/opt/microchip/xc8/v1.36/include/pic18f4580.h"
B3D4 equ 0E5Ah ;# 
# 12561 "/opt/microchip/xc8/v1.36/include/pic18f4580.h"
B3D5 equ 0E5Bh ;# 
# 12622 "/opt/microchip/xc8/v1.36/include/pic18f4580.h"
B3D6 equ 0E5Ch ;# 
# 12683 "/opt/microchip/xc8/v1.36/include/pic18f4580.h"
B3D7 equ 0E5Dh ;# 
# 12744 "/opt/microchip/xc8/v1.36/include/pic18f4580.h"
CANSTAT_RO6 equ 0E5Eh ;# 
# 12837 "/opt/microchip/xc8/v1.36/include/pic18f4580.h"
CANCON_RO6 equ 0E5Fh ;# 
# 12919 "/opt/microchip/xc8/v1.36/include/pic18f4580.h"
B4CON equ 0E60h ;# 
# 13231 "/opt/microchip/xc8/v1.36/include/pic18f4580.h"
B4SIDH equ 0E61h ;# 
# 13363 "/opt/microchip/xc8/v1.36/include/pic18f4580.h"
B4SIDL equ 0E62h ;# 
# 13499 "/opt/microchip/xc8/v1.36/include/pic18f4580.h"
B4EIDH equ 0E63h ;# 
# 13631 "/opt/microchip/xc8/v1.36/include/pic18f4580.h"
B4EIDL equ 0E64h ;# 
# 13763 "/opt/microchip/xc8/v1.36/include/pic18f4580.h"
B4DLC equ 0E65h ;# 
# 13910 "/opt/microchip/xc8/v1.36/include/pic18f4580.h"
B4D0 equ 0E66h ;# 
# 13971 "/opt/microchip/xc8/v1.36/include/pic18f4580.h"
B4D1 equ 0E67h ;# 
# 14032 "/opt/microchip/xc8/v1.36/include/pic18f4580.h"
B4D2 equ 0E68h ;# 
# 14093 "/opt/microchip/xc8/v1.36/include/pic18f4580.h"
B4D3 equ 0E69h ;# 
# 14154 "/opt/microchip/xc8/v1.36/include/pic18f4580.h"
B4D4 equ 0E6Ah ;# 
# 14215 "/opt/microchip/xc8/v1.36/include/pic18f4580.h"
B4D5 equ 0E6Bh ;# 
# 14276 "/opt/microchip/xc8/v1.36/include/pic18f4580.h"
B4D6 equ 0E6Ch ;# 
# 14337 "/opt/microchip/xc8/v1.36/include/pic18f4580.h"
B4D7 equ 0E6Dh ;# 
# 14407 "/opt/microchip/xc8/v1.36/include/pic18f4580.h"
CANSTAT_RO5 equ 0E6Eh ;# 
# 14500 "/opt/microchip/xc8/v1.36/include/pic18f4580.h"
CANCON_RO5 equ 0E6Fh ;# 
# 14582 "/opt/microchip/xc8/v1.36/include/pic18f4580.h"
B5CON equ 0E70h ;# 
# 14894 "/opt/microchip/xc8/v1.36/include/pic18f4580.h"
B5SIDH equ 0E71h ;# 
# 15026 "/opt/microchip/xc8/v1.36/include/pic18f4580.h"
B5SIDL equ 0E72h ;# 
# 15171 "/opt/microchip/xc8/v1.36/include/pic18f4580.h"
B5EIDH equ 0E73h ;# 
# 15303 "/opt/microchip/xc8/v1.36/include/pic18f4580.h"
B5EIDL equ 0E74h ;# 
# 15435 "/opt/microchip/xc8/v1.36/include/pic18f4580.h"
B5DLC equ 0E75h ;# 
# 15576 "/opt/microchip/xc8/v1.36/include/pic18f4580.h"
B5D0 equ 0E76h ;# 
# 15646 "/opt/microchip/xc8/v1.36/include/pic18f4580.h"
B5D1 equ 0E77h ;# 
# 15707 "/opt/microchip/xc8/v1.36/include/pic18f4580.h"
B5D2 equ 0E78h ;# 
# 15777 "/opt/microchip/xc8/v1.36/include/pic18f4580.h"
B5D3 equ 0E79h ;# 
# 15838 "/opt/microchip/xc8/v1.36/include/pic18f4580.h"
B5D4 equ 0E7Ah ;# 
# 15899 "/opt/microchip/xc8/v1.36/include/pic18f4580.h"
B5D5 equ 0E7Bh ;# 
# 15960 "/opt/microchip/xc8/v1.36/include/pic18f4580.h"
B5D6 equ 0E7Ch ;# 
# 16021 "/opt/microchip/xc8/v1.36/include/pic18f4580.h"
B5D7 equ 0E7Dh ;# 
# 16082 "/opt/microchip/xc8/v1.36/include/pic18f4580.h"
CANSTAT_RO4 equ 0E7Eh ;# 
# 16175 "/opt/microchip/xc8/v1.36/include/pic18f4580.h"
CANCON_RO4 equ 0E7Fh ;# 
# 16257 "/opt/microchip/xc8/v1.36/include/pic18f4580.h"
RXF0SIDH equ 0F00h ;# 
# 16389 "/opt/microchip/xc8/v1.36/include/pic18f4580.h"
RXF0SIDL equ 0F01h ;# 
# 16502 "/opt/microchip/xc8/v1.36/include/pic18f4580.h"
RXF0EIDH equ 0F02h ;# 
# 16634 "/opt/microchip/xc8/v1.36/include/pic18f4580.h"
RXF0EIDL equ 0F03h ;# 
# 16766 "/opt/microchip/xc8/v1.36/include/pic18f4580.h"
RXF1SIDH equ 0F04h ;# 
# 16898 "/opt/microchip/xc8/v1.36/include/pic18f4580.h"
RXF1SIDL equ 0F05h ;# 
# 17011 "/opt/microchip/xc8/v1.36/include/pic18f4580.h"
RXF1EIDH equ 0F06h ;# 
# 17143 "/opt/microchip/xc8/v1.36/include/pic18f4580.h"
RXF1EIDL equ 0F07h ;# 
# 17275 "/opt/microchip/xc8/v1.36/include/pic18f4580.h"
RXF2SIDH equ 0F08h ;# 
# 17407 "/opt/microchip/xc8/v1.36/include/pic18f4580.h"
RXF2SIDL equ 0F09h ;# 
# 17520 "/opt/microchip/xc8/v1.36/include/pic18f4580.h"
RXF2EIDH equ 0F0Ah ;# 
# 17652 "/opt/microchip/xc8/v1.36/include/pic18f4580.h"
RXF2EIDL equ 0F0Bh ;# 
# 17784 "/opt/microchip/xc8/v1.36/include/pic18f4580.h"
RXF3SIDH equ 0F0Ch ;# 
# 17916 "/opt/microchip/xc8/v1.36/include/pic18f4580.h"
RXF3SIDL equ 0F0Dh ;# 
# 18029 "/opt/microchip/xc8/v1.36/include/pic18f4580.h"
RXF3EIDH equ 0F0Eh ;# 
# 18161 "/opt/microchip/xc8/v1.36/include/pic18f4580.h"
RXF3EIDL equ 0F0Fh ;# 
# 18293 "/opt/microchip/xc8/v1.36/include/pic18f4580.h"
RXF4SIDH equ 0F10h ;# 
# 18425 "/opt/microchip/xc8/v1.36/include/pic18f4580.h"
RXF4SIDL equ 0F11h ;# 
# 18538 "/opt/microchip/xc8/v1.36/include/pic18f4580.h"
RXF4EIDH equ 0F12h ;# 
# 18670 "/opt/microchip/xc8/v1.36/include/pic18f4580.h"
RXF4EIDL equ 0F13h ;# 
# 18802 "/opt/microchip/xc8/v1.36/include/pic18f4580.h"
RXF5SIDH equ 0F14h ;# 
# 18934 "/opt/microchip/xc8/v1.36/include/pic18f4580.h"
RXF5SIDL equ 0F15h ;# 
# 19047 "/opt/microchip/xc8/v1.36/include/pic18f4580.h"
RXF5EIDH equ 0F16h ;# 
# 19179 "/opt/microchip/xc8/v1.36/include/pic18f4580.h"
RXF5EIDL equ 0F17h ;# 
# 19311 "/opt/microchip/xc8/v1.36/include/pic18f4580.h"
RXM0SIDH equ 0F18h ;# 
# 19443 "/opt/microchip/xc8/v1.36/include/pic18f4580.h"
RXM0SIDL equ 0F19h ;# 
# 19547 "/opt/microchip/xc8/v1.36/include/pic18f4580.h"
RXM0EIDH equ 0F1Ah ;# 
# 19679 "/opt/microchip/xc8/v1.36/include/pic18f4580.h"
RXM0EIDL equ 0F1Bh ;# 
# 19811 "/opt/microchip/xc8/v1.36/include/pic18f4580.h"
RXM1SIDH equ 0F1Ch ;# 
# 19943 "/opt/microchip/xc8/v1.36/include/pic18f4580.h"
RXM1SIDL equ 0F1Dh ;# 
# 20047 "/opt/microchip/xc8/v1.36/include/pic18f4580.h"
RXM1EIDH equ 0F1Eh ;# 
# 20179 "/opt/microchip/xc8/v1.36/include/pic18f4580.h"
RXM1EIDL equ 0F1Fh ;# 
# 20311 "/opt/microchip/xc8/v1.36/include/pic18f4580.h"
TXB2CON equ 0F20h ;# 
# 20438 "/opt/microchip/xc8/v1.36/include/pic18f4580.h"
TXB2SIDH equ 0F21h ;# 
# 20570 "/opt/microchip/xc8/v1.36/include/pic18f4580.h"
TXB2SIDL equ 0F22h ;# 
# 20674 "/opt/microchip/xc8/v1.36/include/pic18f4580.h"
TXB2EIDH equ 0F23h ;# 
# 20806 "/opt/microchip/xc8/v1.36/include/pic18f4580.h"
TXB2EIDL equ 0F24h ;# 
# 20938 "/opt/microchip/xc8/v1.36/include/pic18f4580.h"
TXB2DLC equ 0F25h ;# 
# 21026 "/opt/microchip/xc8/v1.36/include/pic18f4580.h"
TXB2D0 equ 0F26h ;# 
# 21087 "/opt/microchip/xc8/v1.36/include/pic18f4580.h"
TXB2D1 equ 0F27h ;# 
# 21148 "/opt/microchip/xc8/v1.36/include/pic18f4580.h"
TXB2D2 equ 0F28h ;# 
# 21209 "/opt/microchip/xc8/v1.36/include/pic18f4580.h"
TXB2D3 equ 0F29h ;# 
# 21270 "/opt/microchip/xc8/v1.36/include/pic18f4580.h"
TXB2D4 equ 0F2Ah ;# 
# 21331 "/opt/microchip/xc8/v1.36/include/pic18f4580.h"
TXB2D5 equ 0F2Bh ;# 
# 21392 "/opt/microchip/xc8/v1.36/include/pic18f4580.h"
TXB2D6 equ 0F2Ch ;# 
# 21453 "/opt/microchip/xc8/v1.36/include/pic18f4580.h"
TXB2D7 equ 0F2Dh ;# 
# 21514 "/opt/microchip/xc8/v1.36/include/pic18f4580.h"
CANSTAT_RO3 equ 0F2Eh ;# 
# 21607 "/opt/microchip/xc8/v1.36/include/pic18f4580.h"
CANCON_RO3 equ 0F2Fh ;# 
# 21689 "/opt/microchip/xc8/v1.36/include/pic18f4580.h"
TXB1CON equ 0F30h ;# 
# 21816 "/opt/microchip/xc8/v1.36/include/pic18f4580.h"
TXB1SIDH equ 0F31h ;# 
# 21948 "/opt/microchip/xc8/v1.36/include/pic18f4580.h"
TXB1SIDL equ 0F32h ;# 
# 22052 "/opt/microchip/xc8/v1.36/include/pic18f4580.h"
TXB1EIDH equ 0F33h ;# 
# 22184 "/opt/microchip/xc8/v1.36/include/pic18f4580.h"
TXB1EIDL equ 0F34h ;# 
# 22316 "/opt/microchip/xc8/v1.36/include/pic18f4580.h"
TXB1DLC equ 0F35h ;# 
# 22404 "/opt/microchip/xc8/v1.36/include/pic18f4580.h"
TXB1D0 equ 0F36h ;# 
# 22465 "/opt/microchip/xc8/v1.36/include/pic18f4580.h"
TXB1D1 equ 0F37h ;# 
# 22526 "/opt/microchip/xc8/v1.36/include/pic18f4580.h"
TXB1D2 equ 0F38h ;# 
# 22587 "/opt/microchip/xc8/v1.36/include/pic18f4580.h"
TXB1D3 equ 0F39h ;# 
# 22648 "/opt/microchip/xc8/v1.36/include/pic18f4580.h"
TXB1D4 equ 0F3Ah ;# 
# 22709 "/opt/microchip/xc8/v1.36/include/pic18f4580.h"
TXB1D5 equ 0F3Bh ;# 
# 22770 "/opt/microchip/xc8/v1.36/include/pic18f4580.h"
TXB1D6 equ 0F3Ch ;# 
# 22831 "/opt/microchip/xc8/v1.36/include/pic18f4580.h"
TXB1D7 equ 0F3Dh ;# 
# 22892 "/opt/microchip/xc8/v1.36/include/pic18f4580.h"
CANSTAT_RO2 equ 0F3Eh ;# 
# 22985 "/opt/microchip/xc8/v1.36/include/pic18f4580.h"
CANCON_RO2 equ 0F3Fh ;# 
# 23067 "/opt/microchip/xc8/v1.36/include/pic18f4580.h"
TXB0CON equ 0F40h ;# 
# 23185 "/opt/microchip/xc8/v1.36/include/pic18f4580.h"
TXB0SIDH equ 0F41h ;# 
# 23317 "/opt/microchip/xc8/v1.36/include/pic18f4580.h"
TXB0SIDL equ 0F42h ;# 
# 23421 "/opt/microchip/xc8/v1.36/include/pic18f4580.h"
TXB0EIDH equ 0F43h ;# 
# 23553 "/opt/microchip/xc8/v1.36/include/pic18f4580.h"
TXB0EIDL equ 0F44h ;# 
# 23685 "/opt/microchip/xc8/v1.36/include/pic18f4580.h"
TXB0DLC equ 0F45h ;# 
# 23773 "/opt/microchip/xc8/v1.36/include/pic18f4580.h"
TXB0D0 equ 0F46h ;# 
# 23834 "/opt/microchip/xc8/v1.36/include/pic18f4580.h"
TXB0D1 equ 0F47h ;# 
# 23895 "/opt/microchip/xc8/v1.36/include/pic18f4580.h"
TXB0D2 equ 0F48h ;# 
# 23956 "/opt/microchip/xc8/v1.36/include/pic18f4580.h"
TXB0D3 equ 0F49h ;# 
# 24017 "/opt/microchip/xc8/v1.36/include/pic18f4580.h"
TXB0D4 equ 0F4Ah ;# 
# 24078 "/opt/microchip/xc8/v1.36/include/pic18f4580.h"
TXB0D5 equ 0F4Bh ;# 
# 24139 "/opt/microchip/xc8/v1.36/include/pic18f4580.h"
TXB0D6 equ 0F4Ch ;# 
# 24200 "/opt/microchip/xc8/v1.36/include/pic18f4580.h"
TXB0D7 equ 0F4Dh ;# 
# 24261 "/opt/microchip/xc8/v1.36/include/pic18f4580.h"
CANSTAT_RO1 equ 0F4Eh ;# 
# 24354 "/opt/microchip/xc8/v1.36/include/pic18f4580.h"
CANCON_RO1 equ 0F4Fh ;# 
# 24436 "/opt/microchip/xc8/v1.36/include/pic18f4580.h"
RXB1CON equ 0F50h ;# 
# 24618 "/opt/microchip/xc8/v1.36/include/pic18f4580.h"
RXB1SIDH equ 0F51h ;# 
# 24750 "/opt/microchip/xc8/v1.36/include/pic18f4580.h"
RXB1SIDL equ 0F52h ;# 
# 24868 "/opt/microchip/xc8/v1.36/include/pic18f4580.h"
RXB1EIDH equ 0F53h ;# 
# 25000 "/opt/microchip/xc8/v1.36/include/pic18f4580.h"
RXB1EIDL equ 0F54h ;# 
# 25132 "/opt/microchip/xc8/v1.36/include/pic18f4580.h"
RXB1DLC equ 0F55h ;# 
# 25264 "/opt/microchip/xc8/v1.36/include/pic18f4580.h"
RXB1D0 equ 0F56h ;# 
# 25325 "/opt/microchip/xc8/v1.36/include/pic18f4580.h"
RXB1D1 equ 0F57h ;# 
# 25386 "/opt/microchip/xc8/v1.36/include/pic18f4580.h"
RXB1D2 equ 0F58h ;# 
# 25447 "/opt/microchip/xc8/v1.36/include/pic18f4580.h"
RXB1D3 equ 0F59h ;# 
# 25508 "/opt/microchip/xc8/v1.36/include/pic18f4580.h"
RXB1D4 equ 0F5Ah ;# 
# 25569 "/opt/microchip/xc8/v1.36/include/pic18f4580.h"
RXB1D5 equ 0F5Bh ;# 
# 25630 "/opt/microchip/xc8/v1.36/include/pic18f4580.h"
RXB1D6 equ 0F5Ch ;# 
# 25691 "/opt/microchip/xc8/v1.36/include/pic18f4580.h"
RXB1D7 equ 0F5Dh ;# 
# 25752 "/opt/microchip/xc8/v1.36/include/pic18f4580.h"
CANSTAT_RO0 equ 0F5Eh ;# 
# 25845 "/opt/microchip/xc8/v1.36/include/pic18f4580.h"
CANCON_RO0 equ 0F5Fh ;# 
# 25927 "/opt/microchip/xc8/v1.36/include/pic18f4580.h"
RXB0CON equ 0F60h ;# 
# 26142 "/opt/microchip/xc8/v1.36/include/pic18f4580.h"
RXB0SIDH equ 0F61h ;# 
# 26274 "/opt/microchip/xc8/v1.36/include/pic18f4580.h"
RXB0SIDL equ 0F62h ;# 
# 26392 "/opt/microchip/xc8/v1.36/include/pic18f4580.h"
RXB0EIDH equ 0F63h ;# 
# 26524 "/opt/microchip/xc8/v1.36/include/pic18f4580.h"
RXB0EIDL equ 0F64h ;# 
# 26656 "/opt/microchip/xc8/v1.36/include/pic18f4580.h"
RXB0DLC equ 0F65h ;# 
# 26788 "/opt/microchip/xc8/v1.36/include/pic18f4580.h"
RXB0D0 equ 0F66h ;# 
# 26849 "/opt/microchip/xc8/v1.36/include/pic18f4580.h"
RXB0D1 equ 0F67h ;# 
# 26910 "/opt/microchip/xc8/v1.36/include/pic18f4580.h"
RXB0D2 equ 0F68h ;# 
# 26971 "/opt/microchip/xc8/v1.36/include/pic18f4580.h"
RXB0D3 equ 0F69h ;# 
# 27032 "/opt/microchip/xc8/v1.36/include/pic18f4580.h"
RXB0D4 equ 0F6Ah ;# 
# 27093 "/opt/microchip/xc8/v1.36/include/pic18f4580.h"
RXB0D5 equ 0F6Bh ;# 
# 27154 "/opt/microchip/xc8/v1.36/include/pic18f4580.h"
RXB0D6 equ 0F6Ch ;# 
# 27215 "/opt/microchip/xc8/v1.36/include/pic18f4580.h"
RXB0D7 equ 0F6Dh ;# 
# 27276 "/opt/microchip/xc8/v1.36/include/pic18f4580.h"
CANSTAT equ 0F6Eh ;# 
# 27384 "/opt/microchip/xc8/v1.36/include/pic18f4580.h"
CANCON equ 0F6Fh ;# 
# 27487 "/opt/microchip/xc8/v1.36/include/pic18f4580.h"
BRGCON1 equ 0F70h ;# 
# 27548 "/opt/microchip/xc8/v1.36/include/pic18f4580.h"
BRGCON2 equ 0F71h ;# 
# 27618 "/opt/microchip/xc8/v1.36/include/pic18f4580.h"
BRGCON3 equ 0F72h ;# 
# 27662 "/opt/microchip/xc8/v1.36/include/pic18f4580.h"
CIOCON equ 0F73h ;# 
# 27688 "/opt/microchip/xc8/v1.36/include/pic18f4580.h"
COMSTAT equ 0F74h ;# 
# 27809 "/opt/microchip/xc8/v1.36/include/pic18f4580.h"
RXERRCNT equ 0F75h ;# 
# 27870 "/opt/microchip/xc8/v1.36/include/pic18f4580.h"
TXERRCNT equ 0F76h ;# 
# 27931 "/opt/microchip/xc8/v1.36/include/pic18f4580.h"
ECANCON equ 0F77h ;# 
# 28001 "/opt/microchip/xc8/v1.36/include/pic18f4580.h"
PORTA equ 0F80h ;# 
# 28211 "/opt/microchip/xc8/v1.36/include/pic18f4580.h"
PORTB equ 0F81h ;# 
# 28384 "/opt/microchip/xc8/v1.36/include/pic18f4580.h"
PORTC equ 0F82h ;# 
# 28556 "/opt/microchip/xc8/v1.36/include/pic18f4580.h"
PORTD equ 0F83h ;# 
# 28735 "/opt/microchip/xc8/v1.36/include/pic18f4580.h"
PORTE equ 0F84h ;# 
# 28851 "/opt/microchip/xc8/v1.36/include/pic18f4580.h"
LATA equ 0F89h ;# 
# 28983 "/opt/microchip/xc8/v1.36/include/pic18f4580.h"
LATB equ 0F8Ah ;# 
# 29115 "/opt/microchip/xc8/v1.36/include/pic18f4580.h"
LATC equ 0F8Bh ;# 
# 29247 "/opt/microchip/xc8/v1.36/include/pic18f4580.h"
LATD equ 0F8Ch ;# 
# 29379 "/opt/microchip/xc8/v1.36/include/pic18f4580.h"
LATE equ 0F8Dh ;# 
# 29436 "/opt/microchip/xc8/v1.36/include/pic18f4580.h"
TRISA equ 0F92h ;# 
# 29441 "/opt/microchip/xc8/v1.36/include/pic18f4580.h"
DDRA equ 0F92h ;# 
# 29657 "/opt/microchip/xc8/v1.36/include/pic18f4580.h"
TRISB equ 0F93h ;# 
# 29662 "/opt/microchip/xc8/v1.36/include/pic18f4580.h"
DDRB equ 0F93h ;# 
# 29878 "/opt/microchip/xc8/v1.36/include/pic18f4580.h"
TRISC equ 0F94h ;# 
# 29883 "/opt/microchip/xc8/v1.36/include/pic18f4580.h"
DDRC equ 0F94h ;# 
# 30099 "/opt/microchip/xc8/v1.36/include/pic18f4580.h"
TRISD equ 0F95h ;# 
# 30104 "/opt/microchip/xc8/v1.36/include/pic18f4580.h"
DDRD equ 0F95h ;# 
# 30320 "/opt/microchip/xc8/v1.36/include/pic18f4580.h"
TRISE equ 0F96h ;# 
# 30325 "/opt/microchip/xc8/v1.36/include/pic18f4580.h"
DDRE equ 0F96h ;# 
# 30471 "/opt/microchip/xc8/v1.36/include/pic18f4580.h"
OSCTUNE equ 0F9Bh ;# 
# 30542 "/opt/microchip/xc8/v1.36/include/pic18f4580.h"
PIE1 equ 0F9Dh ;# 
# 30621 "/opt/microchip/xc8/v1.36/include/pic18f4580.h"
PIR1 equ 0F9Eh ;# 
# 30700 "/opt/microchip/xc8/v1.36/include/pic18f4580.h"
IPR1 equ 0F9Fh ;# 
# 30788 "/opt/microchip/xc8/v1.36/include/pic18f4580.h"
PIE2 equ 0FA0h ;# 
# 30853 "/opt/microchip/xc8/v1.36/include/pic18f4580.h"
PIR2 equ 0FA1h ;# 
# 30918 "/opt/microchip/xc8/v1.36/include/pic18f4580.h"
IPR2 equ 0FA2h ;# 
# 30983 "/opt/microchip/xc8/v1.36/include/pic18f4580.h"
PIE3 equ 0FA3h ;# 
# 31091 "/opt/microchip/xc8/v1.36/include/pic18f4580.h"
PIR3 equ 0FA4h ;# 
# 31191 "/opt/microchip/xc8/v1.36/include/pic18f4580.h"
IPR3 equ 0FA5h ;# 
# 31291 "/opt/microchip/xc8/v1.36/include/pic18f4580.h"
EECON1 equ 0FA6h ;# 
# 31356 "/opt/microchip/xc8/v1.36/include/pic18f4580.h"
EECON2 equ 0FA7h ;# 
# 31362 "/opt/microchip/xc8/v1.36/include/pic18f4580.h"
EEDATA equ 0FA8h ;# 
# 31368 "/opt/microchip/xc8/v1.36/include/pic18f4580.h"
EEADR equ 0FA9h ;# 
# 31374 "/opt/microchip/xc8/v1.36/include/pic18f4580.h"
RCSTA equ 0FABh ;# 
# 31379 "/opt/microchip/xc8/v1.36/include/pic18f4580.h"
RCSTA1 equ 0FABh ;# 
# 31583 "/opt/microchip/xc8/v1.36/include/pic18f4580.h"
TXSTA equ 0FACh ;# 
# 31588 "/opt/microchip/xc8/v1.36/include/pic18f4580.h"
TXSTA1 equ 0FACh ;# 
# 31880 "/opt/microchip/xc8/v1.36/include/pic18f4580.h"
TXREG equ 0FADh ;# 
# 31885 "/opt/microchip/xc8/v1.36/include/pic18f4580.h"
TXREG1 equ 0FADh ;# 
# 31891 "/opt/microchip/xc8/v1.36/include/pic18f4580.h"
RCREG equ 0FAEh ;# 
# 31896 "/opt/microchip/xc8/v1.36/include/pic18f4580.h"
RCREG1 equ 0FAEh ;# 
# 31902 "/opt/microchip/xc8/v1.36/include/pic18f4580.h"
SPBRG equ 0FAFh ;# 
# 31907 "/opt/microchip/xc8/v1.36/include/pic18f4580.h"
SPBRG1 equ 0FAFh ;# 
# 31913 "/opt/microchip/xc8/v1.36/include/pic18f4580.h"
SPBRGH equ 0FB0h ;# 
# 31919 "/opt/microchip/xc8/v1.36/include/pic18f4580.h"
T3CON equ 0FB1h ;# 
# 32047 "/opt/microchip/xc8/v1.36/include/pic18f4580.h"
TMR3 equ 0FB2h ;# 
# 32053 "/opt/microchip/xc8/v1.36/include/pic18f4580.h"
TMR3L equ 0FB2h ;# 
# 32059 "/opt/microchip/xc8/v1.36/include/pic18f4580.h"
TMR3H equ 0FB3h ;# 
# 32065 "/opt/microchip/xc8/v1.36/include/pic18f4580.h"
CMCON equ 0FB4h ;# 
# 32160 "/opt/microchip/xc8/v1.36/include/pic18f4580.h"
CVRCON equ 0FB5h ;# 
# 32244 "/opt/microchip/xc8/v1.36/include/pic18f4580.h"
ECCP1AS equ 0FB6h ;# 
# 32325 "/opt/microchip/xc8/v1.36/include/pic18f4580.h"
ECCP1DEL equ 0FB7h ;# 
# 32394 "/opt/microchip/xc8/v1.36/include/pic18f4580.h"
BAUDCON equ 0FB8h ;# 
# 32399 "/opt/microchip/xc8/v1.36/include/pic18f4580.h"
BAUDCTL equ 0FB8h ;# 
# 32559 "/opt/microchip/xc8/v1.36/include/pic18f4580.h"
ECCP1CON equ 0FBAh ;# 
# 32640 "/opt/microchip/xc8/v1.36/include/pic18f4580.h"
ECCPR1 equ 0FBBh ;# 
# 32646 "/opt/microchip/xc8/v1.36/include/pic18f4580.h"
ECCPR1L equ 0FBBh ;# 
# 32652 "/opt/microchip/xc8/v1.36/include/pic18f4580.h"
ECCPR1H equ 0FBCh ;# 
# 32658 "/opt/microchip/xc8/v1.36/include/pic18f4580.h"
CCP1CON equ 0FBDh ;# 
# 32721 "/opt/microchip/xc8/v1.36/include/pic18f4580.h"
CCPR1 equ 0FBEh ;# 
# 32727 "/opt/microchip/xc8/v1.36/include/pic18f4580.h"
CCPR1L equ 0FBEh ;# 
# 32733 "/opt/microchip/xc8/v1.36/include/pic18f4580.h"
CCPR1H equ 0FBFh ;# 
# 32739 "/opt/microchip/xc8/v1.36/include/pic18f4580.h"
ADCON2 equ 0FC0h ;# 
# 32809 "/opt/microchip/xc8/v1.36/include/pic18f4580.h"
ADCON1 equ 0FC1h ;# 
# 32899 "/opt/microchip/xc8/v1.36/include/pic18f4580.h"
ADCON0 equ 0FC2h ;# 
# 33017 "/opt/microchip/xc8/v1.36/include/pic18f4580.h"
ADRES equ 0FC3h ;# 
# 33023 "/opt/microchip/xc8/v1.36/include/pic18f4580.h"
ADRESL equ 0FC3h ;# 
# 33029 "/opt/microchip/xc8/v1.36/include/pic18f4580.h"
ADRESH equ 0FC4h ;# 
# 33035 "/opt/microchip/xc8/v1.36/include/pic18f4580.h"
SSPCON2 equ 0FC5h ;# 
# 33096 "/opt/microchip/xc8/v1.36/include/pic18f4580.h"
SSPCON1 equ 0FC6h ;# 
# 33165 "/opt/microchip/xc8/v1.36/include/pic18f4580.h"
SSPSTAT equ 0FC7h ;# 
# 33423 "/opt/microchip/xc8/v1.36/include/pic18f4580.h"
SSPADD equ 0FC8h ;# 
# 33429 "/opt/microchip/xc8/v1.36/include/pic18f4580.h"
SSPBUF equ 0FC9h ;# 
# 33435 "/opt/microchip/xc8/v1.36/include/pic18f4580.h"
T2CON equ 0FCAh ;# 
# 33505 "/opt/microchip/xc8/v1.36/include/pic18f4580.h"
PR2 equ 0FCBh ;# 
# 33510 "/opt/microchip/xc8/v1.36/include/pic18f4580.h"
MEMCON equ 0FCBh ;# 
# 33614 "/opt/microchip/xc8/v1.36/include/pic18f4580.h"
TMR2 equ 0FCCh ;# 
# 33620 "/opt/microchip/xc8/v1.36/include/pic18f4580.h"
T1CON equ 0FCDh ;# 
# 33733 "/opt/microchip/xc8/v1.36/include/pic18f4580.h"
TMR1 equ 0FCEh ;# 
# 33739 "/opt/microchip/xc8/v1.36/include/pic18f4580.h"
TMR1L equ 0FCEh ;# 
# 33745 "/opt/microchip/xc8/v1.36/include/pic18f4580.h"
TMR1H equ 0FCFh ;# 
# 33751 "/opt/microchip/xc8/v1.36/include/pic18f4580.h"
RCON equ 0FD0h ;# 
# 33883 "/opt/microchip/xc8/v1.36/include/pic18f4580.h"
WDTCON equ 0FD1h ;# 
# 33910 "/opt/microchip/xc8/v1.36/include/pic18f4580.h"
HLVDCON equ 0FD2h ;# 
# 33915 "/opt/microchip/xc8/v1.36/include/pic18f4580.h"
LVDCON equ 0FD2h ;# 
# 34179 "/opt/microchip/xc8/v1.36/include/pic18f4580.h"
OSCCON equ 0FD3h ;# 
# 34255 "/opt/microchip/xc8/v1.36/include/pic18f4580.h"
T0CON equ 0FD5h ;# 
# 34330 "/opt/microchip/xc8/v1.36/include/pic18f4580.h"
TMR0 equ 0FD6h ;# 
# 34336 "/opt/microchip/xc8/v1.36/include/pic18f4580.h"
TMR0L equ 0FD6h ;# 
# 34342 "/opt/microchip/xc8/v1.36/include/pic18f4580.h"
TMR0H equ 0FD7h ;# 
# 34348 "/opt/microchip/xc8/v1.36/include/pic18f4580.h"
STATUS equ 0FD8h ;# 
# 34426 "/opt/microchip/xc8/v1.36/include/pic18f4580.h"
FSR2 equ 0FD9h ;# 
# 34432 "/opt/microchip/xc8/v1.36/include/pic18f4580.h"
FSR2L equ 0FD9h ;# 
# 34438 "/opt/microchip/xc8/v1.36/include/pic18f4580.h"
FSR2H equ 0FDAh ;# 
# 34444 "/opt/microchip/xc8/v1.36/include/pic18f4580.h"
PLUSW2 equ 0FDBh ;# 
# 34450 "/opt/microchip/xc8/v1.36/include/pic18f4580.h"
PREINC2 equ 0FDCh ;# 
# 34456 "/opt/microchip/xc8/v1.36/include/pic18f4580.h"
POSTDEC2 equ 0FDDh ;# 
# 34462 "/opt/microchip/xc8/v1.36/include/pic18f4580.h"
POSTINC2 equ 0FDEh ;# 
# 34468 "/opt/microchip/xc8/v1.36/include/pic18f4580.h"
INDF2 equ 0FDFh ;# 
# 34474 "/opt/microchip/xc8/v1.36/include/pic18f4580.h"
BSR equ 0FE0h ;# 
# 34480 "/opt/microchip/xc8/v1.36/include/pic18f4580.h"
FSR1 equ 0FE1h ;# 
# 34486 "/opt/microchip/xc8/v1.36/include/pic18f4580.h"
FSR1L equ 0FE1h ;# 
# 34492 "/opt/microchip/xc8/v1.36/include/pic18f4580.h"
FSR1H equ 0FE2h ;# 
# 34498 "/opt/microchip/xc8/v1.36/include/pic18f4580.h"
PLUSW1 equ 0FE3h ;# 
# 34504 "/opt/microchip/xc8/v1.36/include/pic18f4580.h"
PREINC1 equ 0FE4h ;# 
# 34510 "/opt/microchip/xc8/v1.36/include/pic18f4580.h"
POSTDEC1 equ 0FE5h ;# 
# 34516 "/opt/microchip/xc8/v1.36/include/pic18f4580.h"
POSTINC1 equ 0FE6h ;# 
# 34522 "/opt/microchip/xc8/v1.36/include/pic18f4580.h"
INDF1 equ 0FE7h ;# 
# 34528 "/opt/microchip/xc8/v1.36/include/pic18f4580.h"
WREG equ 0FE8h ;# 
# 34534 "/opt/microchip/xc8/v1.36/include/pic18f4580.h"
FSR0 equ 0FE9h ;# 
# 34540 "/opt/microchip/xc8/v1.36/include/pic18f4580.h"
FSR0L equ 0FE9h ;# 
# 34546 "/opt/microchip/xc8/v1.36/include/pic18f4580.h"
FSR0H equ 0FEAh ;# 
# 34552 "/opt/microchip/xc8/v1.36/include/pic18f4580.h"
PLUSW0 equ 0FEBh ;# 
# 34558 "/opt/microchip/xc8/v1.36/include/pic18f4580.h"
PREINC0 equ 0FECh ;# 
# 34564 "/opt/microchip/xc8/v1.36/include/pic18f4580.h"
POSTDEC0 equ 0FEDh ;# 
# 34570 "/opt/microchip/xc8/v1.36/include/pic18f4580.h"
POSTINC0 equ 0FEEh ;# 
# 34576 "/opt/microchip/xc8/v1.36/include/pic18f4580.h"
INDF0 equ 0FEFh ;# 
# 34582 "/opt/microchip/xc8/v1.36/include/pic18f4580.h"
INTCON3 equ 0FF0h ;# 
# 34673 "/opt/microchip/xc8/v1.36/include/pic18f4580.h"
INTCON2 equ 0FF1h ;# 
# 34749 "/opt/microchip/xc8/v1.36/include/pic18f4580.h"
INTCON equ 0FF2h ;# 
# 34865 "/opt/microchip/xc8/v1.36/include/pic18f4580.h"
PROD equ 0FF3h ;# 
# 34871 "/opt/microchip/xc8/v1.36/include/pic18f4580.h"
PRODL equ 0FF3h ;# 
# 34877 "/opt/microchip/xc8/v1.36/include/pic18f4580.h"
PRODH equ 0FF4h ;# 
# 34883 "/opt/microchip/xc8/v1.36/include/pic18f4580.h"
TABLAT equ 0FF5h ;# 
# 34891 "/opt/microchip/xc8/v1.36/include/pic18f4580.h"
TBLPTR equ 0FF6h ;# 
# 34897 "/opt/microchip/xc8/v1.36/include/pic18f4580.h"
TBLPTRL equ 0FF6h ;# 
# 34903 "/opt/microchip/xc8/v1.36/include/pic18f4580.h"
TBLPTRH equ 0FF7h ;# 
# 34909 "/opt/microchip/xc8/v1.36/include/pic18f4580.h"
TBLPTRU equ 0FF8h ;# 
# 34917 "/opt/microchip/xc8/v1.36/include/pic18f4580.h"
PCLAT equ 0FF9h ;# 
# 34924 "/opt/microchip/xc8/v1.36/include/pic18f4580.h"
PC equ 0FF9h ;# 
# 34930 "/opt/microchip/xc8/v1.36/include/pic18f4580.h"
PCL equ 0FF9h ;# 
# 34936 "/opt/microchip/xc8/v1.36/include/pic18f4580.h"
PCLATH equ 0FFAh ;# 
# 34942 "/opt/microchip/xc8/v1.36/include/pic18f4580.h"
PCLATU equ 0FFBh ;# 
# 34948 "/opt/microchip/xc8/v1.36/include/pic18f4580.h"
STKPTR equ 0FFCh ;# 
# 35021 "/opt/microchip/xc8/v1.36/include/pic18f4580.h"
TOS equ 0FFDh ;# 
# 35027 "/opt/microchip/xc8/v1.36/include/pic18f4580.h"
TOSL equ 0FFDh ;# 
# 35033 "/opt/microchip/xc8/v1.36/include/pic18f4580.h"
TOSH equ 0FFEh ;# 
# 35039 "/opt/microchip/xc8/v1.36/include/pic18f4580.h"
TOSU equ 0FFFh ;# 
	FNCALL	_main,_check_matrix_keypad
	FNCALL	_main,_clcd_print
	FNCALL	_main,_clcd_putch
	FNCALL	_main,_init_config
	FNCALL	_init_config,_clcd_write
	FNCALL	_clcd_print,_clcd_write
	FNCALL	_check_matrix_keypad,_clcd_putch
	FNCALL	_check_matrix_keypad,_read_switches
	FNCALL	_read_switches,_scan_key
	FNROOT	_main
	global	read_switches@once
psect	idataCOMRAM,class=CODE,space=0,delta=1,noexec
global __pidataCOMRAM
__pidataCOMRAM:
	file	"main.c"
	line	130

;initializer for read_switches@once
	db	low(01h)
	global	_passw
	global	_pre_passw
	global	read_switches@key
	global	_PORTB
_PORTB	set	0xF81
	global	_PORTBbits
_PORTBbits	set	0xF81
	global	_PORTD
_PORTD	set	0xF83
	global	_TRISB
_TRISB	set	0xF93
	global	_TRISC
_TRISC	set	0xF94
	global	_TRISD
_TRISD	set	0xF95
	global	_RC0
_RC0	set	0x7C10
	global	_RC1
_RC1	set	0x7C11
	global	_RC2
_RC2	set	0x7C12
	global	_RD7
_RD7	set	0x7C1F
psect	smallconst,class=SMALLCONST,space=0,reloc=2,noexec
global __psmallconst
__psmallconst:
	db	0
	
STR_4:
	db	97	;'a'
	db	116	;'t'
	db	116	;'t'
	db	101	;'e'
	db	109	;'m'
	db	112	;'p'
	db	115	;'s'
	db	32
	db	108	;'l'
	db	101	;'e'
	db	102	;'f'
	db	116	;'t'
	db	58	;':'
	db	49	;'1'
	db	0
	
STR_3:
	db	97	;'a'
	db	116	;'t'
	db	116	;'t'
	db	101	;'e'
	db	109	;'m'
	db	112	;'p'
	db	115	;'s'
	db	32
	db	108	;'l'
	db	101	;'e'
	db	102	;'f'
	db	116	;'t'
	db	58	;':'
	db	50	;'2'
	db	0
	
STR_1:
	db	69	;'E'
	db	110	;'n'
	db	116	;'t'
	db	101	;'e'
	db	114	;'r'
	db	32
	db	80	;'P'
	db	97	;'a'
	db	115	;'s'
	db	115	;'s'
	db	119	;'w'
	db	111	;'o'
	db	114	;'r'
	db	100	;'d'
	db	0
	
STR_2:
	db	83	;'S'
	db	117	;'u'
	db	99	;'c'
	db	99	;'c'
	db	101	;'e'
	db	115	;'s'
	db	115	;'s'
	db	102	;'f'
	db	117	;'u'
	db	108	;'l'
	db	108	;'l'
	db	0
	
STR_5:
	db	70	;'F'
	db	65	;'A'
	db	73	;'I'
	db	76	;'L'
	db	69	;'E'
	db	68	;'D'
	db	0
; #config settings
	file	"pic18F4580.as"
	line	#
psect	cinit,class=CODE,delta=1,reloc=2
global __pcinit
__pcinit:
global start_initialization
start_initialization:

global __initialization
__initialization:
psect	bssCOMRAM,class=COMRAM,space=1,noexec
global __pbssCOMRAM
__pbssCOMRAM:
_passw:
       ds      9
	global	_pre_passw
_pre_passw:
       ds      9
read_switches@key:
       ds      1
psect	dataCOMRAM,class=COMRAM,space=1,noexec
global __pdataCOMRAM
__pdataCOMRAM:
	file	"main.c"
	line	130
read_switches@once:
       ds      1
	file	"pic18F4580.as"
	line	#
psect	cinit
; Clear objects allocated to COMRAM (19 bytes)
	global __pbssCOMRAM
lfsr	0,__pbssCOMRAM
movlw	19
clear_0:
clrf	postinc0,c
decf	wreg
bnz	clear_0
	line	#
; Initialize objects allocated to COMRAM (1 bytes)
	global __pidataCOMRAM
	; load TBLPTR registers with __pidataCOMRAM
	movlw	low (__pidataCOMRAM)
	movwf	tblptrl
	movlw	high(__pidataCOMRAM)
	movwf	tblptrh
	movlw	low highword(__pidataCOMRAM)
	movwf	tblptru
	tblrd*+ ;fetch initializer
	movff	tablat, __pdataCOMRAM+0		
psect cinit,class=CODE,delta=1
global end_of_initialization,__end_of__initialization

;End of C runtime variable initialization code

end_of_initialization:
__end_of__initialization:
	GLOBAL	__Lsmallconst
	movlw	low highword(__Lsmallconst)
	movwf	tblptru
	movlw	high(__Lsmallconst)
	movwf	tblptrh
movlb 0
goto _main	;jump to C main() function
psect	cstackCOMRAM,class=COMRAM,space=1,noexec
global __pcstackCOMRAM
__pcstackCOMRAM:
?_init_config:	; 1 bytes @ 0x0
?_clcd_putch:	; 1 bytes @ 0x0
?_check_matrix_keypad:	; 1 bytes @ 0x0
?_clcd_write:	; 1 bytes @ 0x0
?_read_switches:	; 1 bytes @ 0x0
??_read_switches:	; 1 bytes @ 0x0
?_scan_key:	; 1 bytes @ 0x0
??_scan_key:	; 1 bytes @ 0x0
?_main:	; 1 bytes @ 0x0
	global	_clcd_putch$1
_clcd_putch$1:	; 1 bytes @ 0x0
	global	clcd_write@control_bit
clcd_write@control_bit:	; 1 bytes @ 0x0
	global	read_switches@detection_type
read_switches@detection_type:	; 1 bytes @ 0x0
	ds   1
??_clcd_putch:	; 1 bytes @ 0x1
??_check_matrix_keypad:	; 1 bytes @ 0x1
??_clcd_write:	; 1 bytes @ 0x1
	global	clcd_write@byte
clcd_write@byte:	; 1 bytes @ 0x1
	global	check_matrix_keypad@i
check_matrix_keypad@i:	; 2 bytes @ 0x1
	ds   1
??_init_config:	; 1 bytes @ 0x2
?_clcd_print:	; 1 bytes @ 0x2
	global	clcd_print@data
clcd_print@data:	; 2 bytes @ 0x2
	ds   1
	global	check_matrix_keypad@key
check_matrix_keypad@key:	; 1 bytes @ 0x3
	ds   1
	global	clcd_print@addr
clcd_print@addr:	; 1 bytes @ 0x4
	global	check_matrix_keypad@i_158
check_matrix_keypad@i_158:	; 2 bytes @ 0x4
	ds   1
??_clcd_print:	; 1 bytes @ 0x5
	ds   1
??_main:	; 1 bytes @ 0x6
	ds   4
	global	main@delay_145
main@delay_145:	; 4 bytes @ 0xA
	ds   4
	global	main@flag
main@flag:	; 1 bytes @ 0xE
	ds   1
	global	main@delay
main@delay:	; 4 bytes @ 0xF
	ds   4
	global	main@chance
main@chance:	; 2 bytes @ 0x13
	ds   2
	global	main@i
main@i:	; 2 bytes @ 0x15
	ds   2
;!
;!Data Sizes:
;!    Strings     64
;!    Constant    0
;!    Data        1
;!    BSS         19
;!    Persistent  0
;!    Stack       0
;!
;!Auto Spaces:
;!    Space          Size  Autos    Used
;!    COMRAM           95     23      43
;!    BANK0           160      0       0
;!    BANK1           256      0       0
;!    BANK2           256      0       0
;!    BANK3           256      0       0
;!    BANK4           256      0       0
;!    BANK5           256      0       0

;!
;!Pointer List with Targets:
;!
;!    clcd_print@data	PTR const unsigned char  size(2) Largest target is 15
;!		 -> STR_5(CODE[7]), STR_4(CODE[15]), STR_3(CODE[15]), STR_2(CODE[12]), 
;!		 -> STR_1(CODE[15]), 
;!


;!
;!Critical Paths under _main in COMRAM
;!
;!    _main->_check_matrix_keypad
;!    _init_config->_clcd_write
;!    _clcd_print->_clcd_write
;!    _check_matrix_keypad->_clcd_putch
;!    _check_matrix_keypad->_read_switches
;!
;!Critical Paths under _main in BANK0
;!
;!    None.
;!
;!Critical Paths under _main in BANK1
;!
;!    None.
;!
;!Critical Paths under _main in BANK2
;!
;!    None.
;!
;!Critical Paths under _main in BANK3
;!
;!    None.
;!
;!Critical Paths under _main in BANK4
;!
;!    None.
;!
;!Critical Paths under _main in BANK5
;!
;!    None.

;;
;;Main: autosize = 0, tempsize = 4, incstack = 0, save=0
;;

;!
;!Call Graph Tables:
;!
;! ---------------------------------------------------------------------------------
;! (Depth) Function   	        Calls       Base Space   Used Autos Params    Refs
;! ---------------------------------------------------------------------------------
;! (0) _main                                                17    17      0    1958
;!                                              6 COMRAM    17    17      0
;!                _check_matrix_keypad
;!                         _clcd_print
;!                         _clcd_putch
;!                        _init_config
;! ---------------------------------------------------------------------------------
;! (1) _init_config                                          0     0      0     428
;!                         _clcd_write
;! ---------------------------------------------------------------------------------
;! (1) _clcd_print                                           3     0      3    1135
;!                                              2 COMRAM     3     0      3
;!                         _clcd_write
;! ---------------------------------------------------------------------------------
;! (2) _clcd_write                                           2     1      1     428
;!                                              0 COMRAM     2     1      1
;! ---------------------------------------------------------------------------------
;! (1) _check_matrix_keypad                                  5     5      0     188
;!                                              1 COMRAM     5     5      0
;!                         _clcd_putch
;!                      _read_switches
;! ---------------------------------------------------------------------------------
;! (2) _read_switches                                        1     1      0      30
;!                                              0 COMRAM     1     1      0
;!                           _scan_key
;! ---------------------------------------------------------------------------------
;! (3) _scan_key                                             0     0      0       0
;! ---------------------------------------------------------------------------------
;! (1) _clcd_putch                                           1     0      1      22
;!                                              0 COMRAM     1     0      1
;! ---------------------------------------------------------------------------------
;! Estimated maximum stack depth 3
;! ---------------------------------------------------------------------------------
;!
;! Call Graph Graphs:
;!
;! _main (ROOT)
;!   _check_matrix_keypad
;!     _clcd_putch
;!     _read_switches
;!       _scan_key
;!   _clcd_print
;!     _clcd_write
;!   _clcd_putch
;!   _init_config
;!     _clcd_write
;!

;! Address spaces:

;!Name               Size   Autos  Total    Cost      Usage
;!BIGRAM             5FF      0       0      16        0.0%
;!EEDATA             100      0       0       0        0.0%
;!BITBANK5           100      0       0      14        0.0%
;!BANK5              100      0       0      15        0.0%
;!BITBANK4           100      0       0      12        0.0%
;!BANK4              100      0       0      13        0.0%
;!BITBANK3           100      0       0      10        0.0%
;!BANK3              100      0       0      11        0.0%
;!BITBANK2           100      0       0       8        0.0%
;!BANK2              100      0       0       9        0.0%
;!BITBANK1           100      0       0       6        0.0%
;!BANK1              100      0       0       7        0.0%
;!BITBANK0            A0      0       0       4        0.0%
;!BANK0               A0      0       0       5        0.0%
;!BITCOMRAM           5F      0       0       0        0.0%
;!COMRAM              5F     17      2B       1       45.3%
;!BITSFR_3             0      0       0      40        0.0%
;!SFR_3                0      0       0      40        0.0%
;!BITSFR_2             0      0       0      40        0.0%
;!SFR_2                0      0       0      40        0.0%
;!BITSFR_1             0      0       0      40        0.0%
;!SFR_1                0      0       0      40        0.0%
;!BITSFR               0      0       0      40        0.0%
;!SFR                  0      0       0      40        0.0%
;!STACK                0      0       0       2        0.0%
;!NULL                 0      0       0       0        0.0%
;!ABS                  0      0      2B       3        0.0%
;!DATA                 0      0      2B      17        0.0%
;!CODE                 0      0       0       0        0.0%

	global	_main

;; *************** function _main *****************
;; Defined at:
;;		line 11 in file "main.c"
;; Parameters:    Size  Location     Type
;;		None
;; Auto vars:     Size  Location     Type
;;  delay           4   10[COMRAM] unsigned long 
;;  i               2   21[COMRAM] int 
;;  flag            1   14[COMRAM] unsigned char 
;;  delay           4   15[COMRAM] long 
;;  chance          2   19[COMRAM] int 
;; Return value:  Size  Location     Type
;;                  1    wreg      void 
;; Registers used:
;;		wreg, fsr0l, fsr0h, fsr1l, fsr1h, fsr1l, fsr1h, fsr2l, fsr2h, status,2, status,0, pclat, btemp, btemp+1, btemp+2, btemp+3, btemp+4, btemp+5, btemp+6, btemp+7, btemp+8, btemp+9, btemp+10, btemp+11, tosl, structret, tblptrl, tblptrh, tblptru, prodl, prodh, bsr, cstack
;; Tracked objects:
;;		On entry : 0/0
;;		On exit  : 0/0
;;		Unchanged: 0/0
;; Data sizes:     COMRAM   BANK0   BANK1   BANK2   BANK3   BANK4   BANK5
;;      Params:         0       0       0       0       0       0       0
;;      Locals:        13       0       0       0       0       0       0
;;      Temps:          4       0       0       0       0       0       0
;;      Totals:        17       0       0       0       0       0       0
;;Total ram usage:       17 bytes
;; Hardware stack levels required when called:    3
;; This function calls:
;;		_check_matrix_keypad
;;		_clcd_print
;;		_clcd_putch
;;		_init_config
;; This function is called by:
;;		Startup code after reset
;; This function uses a non-reentrant model
;;
psect	text0,class=CODE,space=0,reloc=2
	file	"main.c"
	line	11
global __ptext0
__ptext0:
psect	text0
	file	"main.c"
	line	11
	global	__size_of_main
	__size_of_main	equ	__end_of_main-_main
	
_main:
;incstack = 0
	opt	stack 28
	line	14
	
l979:
;main.c: 14: init_config();
	call	_init_config	;wreg free
	line	15
	
l981:
;main.c: 15: int chance=3;
	movlw	high(03h)
	movwf	((c:main@chance+1)),c
	movlw	low(03h)
	movwf	((c:main@chance)),c
	line	16
	
l983:
;main.c: 16: long int delay=0;
	movlw	low(0)
	movwf	((c:main@delay)),c
	movlw	high(0)
	movwf	((c:main@delay+1)),c
	movlw	low highword(0)
	movwf	((c:main@delay+2)),c
	movlw	high highword(0)
	movwf	((c:main@delay+3)),c
	line	17
	
l985:
;main.c: 17: clcd_print("Enter Password",(0x80 + (0)));
		movlw	low(STR_1)
	movwf	((c:clcd_print@data)),c
	movlw	high(STR_1)
	movwf	((c:clcd_print@data+1)),c

	movlw	low(080h)
	movwf	((c:clcd_print@addr)),c
	call	_clcd_print	;wreg free
	goto	l987
	line	18
;main.c: 18: while(1)
	
l41:
	line	21
	
l987:
;main.c: 19: {
;main.c: 21: if(delay++<25000)
	movff	(c:main@delay),??_main+0+0+0
	movff	(c:main@delay+1),??_main+0+0+1
	movff	(c:main@delay+2),??_main+0+0+2
	movff	(c:main@delay+3),??_main+0+0+3
	incf	((c:main@delay)),c
	movlw	0
	addwfc	((c:main@delay+1)),c
	addwfc	((c:main@delay+2)),c
	addwfc	((c:main@delay+3)),c
	btfsc	(??_main+0+3),c,7
	goto	u330
	movf	(??_main+0+3),c,w
	iorwf	(??_main+0+2),c,w
	bnz	u331
	movlw	168
	subwf	 (??_main+0+0),c,w
	movlw	97
	subwfb	(??_main+0+1),c,w
	btfsc	status,0
	goto	u331
	goto	u330

u331:
	goto	l991
u330:
	line	23
	
l989:
;main.c: 22: {
;main.c: 23: clcd_putch('_',(0xC0 + (0)));
	movlw	low(0C0h)
	movwf	((c:_clcd_putch$1)),c
	movlw	(05Fh)&0ffh
	
	call	_clcd_putch
	line	25
;main.c: 25: }
	goto	l43
	line	26
	
l42:
	
l991:
;main.c: 26: else if(delay <50000)
	btfsc	((c:main@delay+3)),c,7
	goto	u340
	movf	((c:main@delay+3)),c,w
	iorwf	((c:main@delay+2)),c,w
	bnz	u341
	movlw	80
	subwf	 ((c:main@delay)),c,w
	movlw	195
	subwfb	((c:main@delay+1)),c,w
	btfsc	status,0
	goto	u341
	goto	u340

u341:
	goto	l995
u340:
	line	28
	
l993:
;main.c: 27: {
;main.c: 28: check_matrix_keypad();
	call	_check_matrix_keypad	;wreg free
	line	29
;main.c: 29: }
	goto	l43
	line	30
	
l44:
	line	32
	
l995:
;main.c: 30: else
;main.c: 31: {
;main.c: 32: delay=0;
	movlw	low(0)
	movwf	((c:main@delay)),c
	movlw	high(0)
	movwf	((c:main@delay+1)),c
	movlw	low highword(0)
	movwf	((c:main@delay+2)),c
	movlw	high highword(0)
	movwf	((c:main@delay+3)),c
	goto	l43
	line	33
	
l45:
	
l43:
	line	34
;main.c: 33: }
;main.c: 34: char flag=1;
	movlw	low(01h)
	movwf	((c:main@flag)),c
	line	35
;main.c: 35: for(int i=0;pre_passw[i]!='\0';i++)
	movlw	high(0)
	movwf	((c:main@i+1)),c
	movlw	low(0)
	movwf	((c:main@i)),c
	goto	l1003
	line	36
	
l47:
	line	37
	
l997:
;main.c: 36: {
;main.c: 37: if(passw[i]!=pre_passw[i])
	movlw	low(_pre_passw)
	addwf	((c:main@i)),c,w
	movwf	c:fsr2l
	movlw	high(_pre_passw)
	addwfc	((c:main@i+1)),c,w
	movwf	1+c:fsr2l
	movlw	low(_passw)
	addwf	((c:main@i)),c,w
	movwf	c:fsr1l
	movlw	high(_passw)
	addwfc	((c:main@i+1)),c,w
	movwf	1+c:fsr1l
	movf	postinc2,w
xorwf	postinc1,w
	btfsc	status,2
	goto	u351
	goto	u350

u351:
	goto	l1001
u350:
	line	39
	
l999:
;main.c: 38: {
;main.c: 39: flag=0;
	movlw	low(0)
	movwf	((c:main@flag)),c
	goto	l1001
	line	40
	
l48:
	line	35
	
l1001:
	infsnz	((c:main@i)),c
	incf	((c:main@i+1)),c
	goto	l1003
	
l46:
	
l1003:
	movlw	low(_pre_passw)
	addwf	((c:main@i)),c,w
	movwf	c:fsr2l
	movlw	high(_pre_passw)
	addwfc	((c:main@i+1)),c,w
	movwf	1+c:fsr2l
	movf	indf2,w
	btfss	status,2
	goto	u361
	goto	u360
u361:
	goto	l997
u360:
	goto	l1005
	
l49:
	line	44
	
l1005:
;main.c: 40: }
;main.c: 43: }
;main.c: 44: if(flag)
	movf	((c:main@flag)),c,w
	btfsc	status,2
	goto	u371
	goto	u370
u371:
	goto	l1009
u370:
	line	46
	
l1007:
;main.c: 45: {
;main.c: 46: clcd_print("Successfull",(0xC0 + (0)));
		movlw	low(STR_2)
	movwf	((c:clcd_print@data)),c
	movlw	high(STR_2)
	movwf	((c:clcd_print@data+1)),c

	movlw	low(0C0h)
	movwf	((c:clcd_print@addr)),c
	call	_clcd_print	;wreg free
	line	48
;main.c: 48: }
	goto	l987
	line	49
	
l50:
	line	51
	
l1009:
;main.c: 49: else
;main.c: 50: {
;main.c: 51: unsigned long int delay=0;
	movlw	low(0)
	movwf	((c:main@delay_145)),c
	movlw	high(0)
	movwf	((c:main@delay_145+1)),c
	movlw	low highword(0)
	movwf	((c:main@delay_145+2)),c
	movlw	high highword(0)
	movwf	((c:main@delay_145+3)),c
	line	52
	
l1011:
;main.c: 52: chance--;
	decf	((c:main@chance)),c
	btfss	status,0
	decf	((c:main@chance+1)),c
	line	53
	
l1013:
;main.c: 53: if(chance==2)
		movlw	2
	xorwf	((c:main@chance)),c,w
iorwf	((c:main@chance+1)),c,w
	btfss	status,2
	goto	u381
	goto	u380

u381:
	goto	l1017
u380:
	line	55
	
l1015:
;main.c: 54: {
;main.c: 55: clcd_print("attemps left:2",(0xC0 + (0)));
		movlw	low(STR_3)
	movwf	((c:clcd_print@data)),c
	movlw	high(STR_3)
	movwf	((c:clcd_print@data+1)),c

	movlw	low(0C0h)
	movwf	((c:clcd_print@addr)),c
	call	_clcd_print	;wreg free
	line	57
;main.c: 57: }
	goto	l987
	line	58
	
l52:
	
l1017:
;main.c: 58: else if (chance ==1)
		decf	((c:main@chance)),c,w
iorwf	((c:main@chance+1)),c,w
	btfss	status,2
	goto	u391
	goto	u390

u391:
	goto	l1021
u390:
	line	60
	
l1019:
;main.c: 59: {
;main.c: 60: clcd_print("attemps left:1",(0xC0 + (0)));
		movlw	low(STR_4)
	movwf	((c:clcd_print@data)),c
	movlw	high(STR_4)
	movwf	((c:clcd_print@data+1)),c

	movlw	low(0C0h)
	movwf	((c:clcd_print@addr)),c
	call	_clcd_print	;wreg free
	line	61
;main.c: 61: }
	goto	l987
	line	62
	
l54:
	line	64
	
l1021:
;main.c: 62: else
;main.c: 63: {
;main.c: 64: clcd_print("FAILED",(0xC0 + (0)));
		movlw	low(STR_5)
	movwf	((c:clcd_print@data)),c
	movlw	high(STR_5)
	movwf	((c:clcd_print@data+1)),c

	movlw	low(0C0h)
	movwf	((c:clcd_print@addr)),c
	call	_clcd_print	;wreg free
	goto	l987
	line	65
	
l55:
	goto	l987
	
l53:
	goto	l987
	line	69
	
l51:
	goto	l987
	line	73
	
l56:
	line	18
	goto	l987
	
l57:
	line	76
	
l58:
	global	start
	goto	start
	opt stack 0
GLOBAL	__end_of_main
	__end_of_main:
	signat	_main,89
	global	_init_config

;; *************** function _init_config *****************
;; Defined at:
;;		line 222 in file "main.c"
;; Parameters:    Size  Location     Type
;;		None
;; Auto vars:     Size  Location     Type
;;		None
;; Return value:  Size  Location     Type
;;                  1    wreg      void 
;; Registers used:
;;		wreg, status,2, status,0, cstack
;; Tracked objects:
;;		On entry : 0/0
;;		On exit  : 0/0
;;		Unchanged: 0/0
;; Data sizes:     COMRAM   BANK0   BANK1   BANK2   BANK3   BANK4   BANK5
;;      Params:         0       0       0       0       0       0       0
;;      Locals:         0       0       0       0       0       0       0
;;      Temps:          0       0       0       0       0       0       0
;;      Totals:         0       0       0       0       0       0       0
;;Total ram usage:        0 bytes
;; Hardware stack levels used:    1
;; Hardware stack levels required when called:    1
;; This function calls:
;;		_clcd_write
;; This function is called by:
;;		_main
;; This function uses a non-reentrant model
;;
psect	text1,class=CODE,space=0,reloc=2
	line	222
global __ptext1
__ptext1:
psect	text1
	file	"main.c"
	line	222
	global	__size_of_init_config
	__size_of_init_config	equ	__end_of_init_config-_init_config
	
_init_config:
;incstack = 0
	opt	stack 29
	line	224
	
l935:
;main.c: 224: TRISB=0X00;
	movlw	low(0)
	movwf	((c:3987)),c	;volatile
	line	225
;main.c: 225: PORTB=0X00;
	movlw	low(0)
	movwf	((c:3969)),c	;volatile
	line	228
;main.c: 228: TRISD = 0x00;
	movlw	low(0)
	movwf	((c:3989)),c	;volatile
	line	230
	
l937:
;main.c: 230: TRISC = TRISC & 0xF8;
	movf	((c:3988)),c,w	;volatile
	andlw	low(0F8h)
	movwf	((c:3988)),c	;volatile
	line	232
	
l939:
;main.c: 232: RC0 = 0;
	bcf	c:(31760/8),(31760)&7	;volatile
	line	234
	
l941:
;main.c: 234: clcd_write(0x02, 0);
	movlw	low(0)
	movwf	((c:clcd_write@control_bit)),c
	movlw	(02h)&0ffh
	
	call	_clcd_write
	line	235
	
l943:
;main.c: 235: clcd_write(0x38, 0);
	movlw	low(0)
	movwf	((c:clcd_write@control_bit)),c
	movlw	(038h)&0ffh
	
	call	_clcd_write
	line	236
	
l945:
;main.c: 236: clcd_write(0x0C, 0);
	movlw	low(0)
	movwf	((c:clcd_write@control_bit)),c
	movlw	(0Ch)&0ffh
	
	call	_clcd_write
	line	237
	
l947:
;main.c: 237: clcd_write(0x01, 0);
	movlw	low(0)
	movwf	((c:clcd_write@control_bit)),c
	movlw	(01h)&0ffh
	
	call	_clcd_write
	line	239
	
l111:
	return	;funcret
	opt stack 0
GLOBAL	__end_of_init_config
	__end_of_init_config:
	signat	_init_config,89
	global	_clcd_print

;; *************** function _clcd_print *****************
;; Defined at:
;;		line 77 in file "main.c"
;; Parameters:    Size  Location     Type
;;  data            2    2[COMRAM] PTR const unsigned char 
;;		 -> STR_5(7), STR_4(15), STR_3(15), STR_2(12), 
;;		 -> STR_1(15), 
;;  addr            1    4[COMRAM] unsigned char 
;; Auto vars:     Size  Location     Type
;;		None
;; Return value:  Size  Location     Type
;;                  1    wreg      void 
;; Registers used:
;;		wreg, status,2, status,0, tblptrl, tblptrh, tblptru, cstack
;; Tracked objects:
;;		On entry : 0/0
;;		On exit  : 0/0
;;		Unchanged: 0/0
;; Data sizes:     COMRAM   BANK0   BANK1   BANK2   BANK3   BANK4   BANK5
;;      Params:         3       0       0       0       0       0       0
;;      Locals:         0       0       0       0       0       0       0
;;      Temps:          0       0       0       0       0       0       0
;;      Totals:         3       0       0       0       0       0       0
;;Total ram usage:        3 bytes
;; Hardware stack levels used:    1
;; Hardware stack levels required when called:    1
;; This function calls:
;;		_clcd_write
;; This function is called by:
;;		_main
;; This function uses a non-reentrant model
;;
psect	text2,class=CODE,space=0,reloc=2
	line	77
global __ptext2
__ptext2:
psect	text2
	file	"main.c"
	line	77
	global	__size_of_clcd_print
	__size_of_clcd_print	equ	__end_of_clcd_print-_clcd_print
	
_clcd_print:
;incstack = 0
	opt	stack 29
	line	79
	
l949:
;main.c: 79: clcd_write(addr, 0);
	movlw	low(0)
	movwf	((c:clcd_write@control_bit)),c
	movf	((c:clcd_print@addr)),c,w
	
	call	_clcd_write
	line	80
;main.c: 80: while (*data != '\0')
	goto	l955
	
l62:
	line	82
	
l951:
;main.c: 81: {
;main.c: 82: clcd_write(*data++, 1);
	movlw	low(01h)
	movwf	((c:clcd_write@control_bit)),c
	movff	(c:clcd_print@data),tblptrl
	movff	(c:clcd_print@data+1),tblptrh
	if	0	;tblptru may be non-zero
	clrf	tblptru
	endif
	if	0	;tblptru may be non-zero
	global __mediumconst
movlw	low highword(__mediumconst)
	movwf	tblptru
	endif
	tblrd	*
	
	movf	tablat,w
	
	call	_clcd_write
	
l953:
	infsnz	((c:clcd_print@data)),c
	incf	((c:clcd_print@data+1)),c
	goto	l955
	line	83
	
l61:
	line	80
	
l955:
	movff	(c:clcd_print@data),tblptrl
	movff	(c:clcd_print@data+1),tblptrh
	if	0	;tblptru may be non-zero
	clrf	tblptru
	endif
	if	0	;tblptru may be non-zero
	global __mediumconst
movlw	low highword(__mediumconst)
	movwf	tblptru
	endif
	tblrd	*
	
	movf	tablat,w
	iorlw	0
	btfss	status,2
	goto	u281
	goto	u280
u281:
	goto	l951
u280:
	goto	l64
	
l63:
	line	84
	
l64:
	return	;funcret
	opt stack 0
GLOBAL	__end_of_clcd_print
	__end_of_clcd_print:
	signat	_clcd_print,8313
	global	_clcd_write

;; *************** function _clcd_write *****************
;; Defined at:
;;		line 86 in file "main.c"
;; Parameters:    Size  Location     Type
;;  byte            1    wreg     unsigned char 
;;  control_bit     1    0[COMRAM] unsigned char 
;; Auto vars:     Size  Location     Type
;;  byte            1    1[COMRAM] unsigned char 
;; Return value:  Size  Location     Type
;;                  1    wreg      void 
;; Registers used:
;;		wreg, status,2
;; Tracked objects:
;;		On entry : 0/0
;;		On exit  : 0/0
;;		Unchanged: 0/0
;; Data sizes:     COMRAM   BANK0   BANK1   BANK2   BANK3   BANK4   BANK5
;;      Params:         1       0       0       0       0       0       0
;;      Locals:         1       0       0       0       0       0       0
;;      Temps:          0       0       0       0       0       0       0
;;      Totals:         2       0       0       0       0       0       0
;;Total ram usage:        2 bytes
;; Hardware stack levels used:    1
;; This function calls:
;;		Nothing
;; This function is called by:
;;		_clcd_print
;;		_init_config
;; This function uses a non-reentrant model
;;
psect	text3,class=CODE,space=0,reloc=2
	line	86
global __ptext3
__ptext3:
psect	text3
	file	"main.c"
	line	86
	global	__size_of_clcd_write
	__size_of_clcd_write	equ	__end_of_clcd_write-_clcd_write
	
_clcd_write:
;incstack = 0
	opt	stack 29
;clcd_write@byte stored from wreg
	movwf	((c:clcd_write@byte)),c
	line	88
	
l913:
;main.c: 88: PORTD = control_bit;
	movff	(c:clcd_write@control_bit),(c:3971)	;volatile
	line	89
	
l915:
;main.c: 89: PORTD = byte;
	movff	(c:clcd_write@byte),(c:3971)	;volatile
	line	92
	
l917:
;main.c: 92: RC2 = 1;
	bsf	c:(31762/8),(31762)&7	;volatile
	line	93
	
l919:
;main.c: 93: RC2 = 0;
	bcf	c:(31762/8),(31762)&7	;volatile
	line	95
	
l921:
;main.c: 95: TRISD = 0XFF;
	setf	((c:3989)),c	;volatile
	line	96
	
l923:
;main.c: 96: RC0 = 1;
	bsf	c:(31760/8),(31760)&7	;volatile
	line	97
	
l925:
;main.c: 97: RC1 = 0;
	bcf	c:(31761/8),(31761)&7	;volatile
	goto	l927
	line	99
;main.c: 99: do
	
l67:
	line	101
	
l927:
;main.c: 100: {
;main.c: 101: RC2 = 1;
	bsf	c:(31762/8),(31762)&7	;volatile
	line	102
	
l929:
;main.c: 102: RC2 = 0;
	bcf	c:(31762/8),(31762)&7	;volatile
	line	103
	
l931:
;main.c: 103: } while (RD7);
	btfsc	c:(31775/8),(31775)&7	;volatile
	goto	u271
	goto	u270
u271:
	goto	l927
u270:
	
l68:
	line	105
;main.c: 105: RC0 = 0;
	bcf	c:(31760/8),(31760)&7	;volatile
	line	106
	
l933:
;main.c: 106: TRISD = 0X00;
	movlw	low(0)
	movwf	((c:3989)),c	;volatile
	line	107
	
l69:
	return	;funcret
	opt stack 0
GLOBAL	__end_of_clcd_write
	__end_of_clcd_write:
	signat	_clcd_write,8313
	global	_check_matrix_keypad

;; *************** function _check_matrix_keypad *****************
;; Defined at:
;;		line 108 in file "main.c"
;; Parameters:    Size  Location     Type
;;		None
;; Auto vars:     Size  Location     Type
;;  i               2    4[COMRAM] int 
;;  i               2    1[COMRAM] unsigned int 
;;  key             1    3[COMRAM] unsigned char 
;; Return value:  Size  Location     Type
;;                  1    wreg      void 
;; Registers used:
;;		wreg, fsr0l, fsr0h, fsr1l, fsr1h, fsr1l, fsr1h, fsr2l, fsr2h, status,2, status,0, pclat, btemp, btemp+1, btemp+2, btemp+3, btemp+4, btemp+5, btemp+6, btemp+7, btemp+8, btemp+9, btemp+10, btemp+11, tosl, structret, tblptrl, tblptrh, tblptru, prodl, prodh, bsr, cstack
;; Tracked objects:
;;		On entry : 0/0
;;		On exit  : 0/0
;;		Unchanged: 0/0
;; Data sizes:     COMRAM   BANK0   BANK1   BANK2   BANK3   BANK4   BANK5
;;      Params:         0       0       0       0       0       0       0
;;      Locals:         5       0       0       0       0       0       0
;;      Temps:          0       0       0       0       0       0       0
;;      Totals:         5       0       0       0       0       0       0
;;Total ram usage:        5 bytes
;; Hardware stack levels used:    1
;; Hardware stack levels required when called:    2
;; This function calls:
;;		_clcd_putch
;;		_read_switches
;; This function is called by:
;;		_main
;; This function uses a non-reentrant model
;;
psect	text4,class=CODE,space=0,reloc=2
	line	108
global __ptext4
__ptext4:
psect	text4
	file	"main.c"
	line	108
	global	__size_of_check_matrix_keypad
	__size_of_check_matrix_keypad	equ	__end_of_check_matrix_keypad-_check_matrix_keypad
	
_check_matrix_keypad:
;incstack = 0
	opt	stack 28
	line	114
	
l957:
;main.c: 110: unsigned char key;
;main.c: 111: unsigned int i;
;main.c: 114: key = read_switches(1);
	movlw	(01h)&0ffh
	
	call	_read_switches
	movwf	((c:check_matrix_keypad@key)),c
	line	116
	
l959:
;main.c: 116: if (key != 0xff)
		incf	((c:check_matrix_keypad@key)),c,w
	btfsc	status,2
	goto	u291
	goto	u290

u291:
	goto	l78
u290:
	line	118
	
l961:
;main.c: 117: {
;main.c: 118: for(int i=0;i<8;i++)
	movlw	high(0)
	movwf	((c:check_matrix_keypad@i_158+1)),c
	movlw	low(0)
	movwf	((c:check_matrix_keypad@i_158)),c
	
l963:
	btfsc	((c:check_matrix_keypad@i_158+1)),c,7
	goto	u301
	movf	((c:check_matrix_keypad@i_158+1)),c,w
	bnz	u300
	movlw	8
	subwf	 ((c:check_matrix_keypad@i_158)),c,w
	btfss	status,0
	goto	u301
	goto	u300

u301:
	goto	l967
u300:
	goto	l975
	
l965:
	goto	l975
	line	119
	
l73:
	line	120
	
l967:
;main.c: 119: {
;main.c: 120: passw[i]=key;
	movlw	low(_passw)
	addwf	((c:check_matrix_keypad@i_158)),c,w
	movwf	c:fsr2l
	movlw	high(_passw)
	addwfc	((c:check_matrix_keypad@i_158+1)),c,w
	movwf	1+c:fsr2l
	movff	(c:check_matrix_keypad@key),indf2

	line	121
	
l969:
;main.c: 121: clcd_putch('*' , (0xC0 + (0)));
	movlw	low(0C0h)
	movwf	((c:_clcd_putch$1)),c
	movlw	(02Ah)&0ffh
	
	call	_clcd_putch
	line	118
	
l971:
	infsnz	((c:check_matrix_keypad@i_158)),c
	incf	((c:check_matrix_keypad@i_158+1)),c
	
l973:
	btfsc	((c:check_matrix_keypad@i_158+1)),c,7
	goto	u311
	movf	((c:check_matrix_keypad@i_158+1)),c,w
	bnz	u310
	movlw	8
	subwf	 ((c:check_matrix_keypad@i_158)),c,w
	btfss	status,0
	goto	u311
	goto	u310

u311:
	goto	l967
u310:
	goto	l975
	
l74:
	line	124
	
l975:
;main.c: 123: }
;main.c: 124: for (i = 50000; i--;);
	movlw	high(0C350h)
	movwf	((c:check_matrix_keypad@i+1)),c
	movlw	low(0C350h)
	movwf	((c:check_matrix_keypad@i)),c
	goto	l977
	
l76:
	goto	l977
	
l75:
	
l977:
	decf	((c:check_matrix_keypad@i)),c
	btfss	status,0
	decf	((c:check_matrix_keypad@i+1)),c
		incf	((c:check_matrix_keypad@i)),c,w
	bnz	u321
	incf	((c:check_matrix_keypad@i+1)),c,w
	btfss	status,2
	goto	u321
	goto	u320

u321:
	goto	l977
u320:
	goto	l78
	
l77:
	goto	l78
	line	125
	
l72:
	line	127
	
l78:
	return	;funcret
	opt stack 0
GLOBAL	__end_of_check_matrix_keypad
	__end_of_check_matrix_keypad:
	signat	_check_matrix_keypad,89
	global	_read_switches

;; *************** function _read_switches *****************
;; Defined at:
;;		line 128 in file "main.c"
;; Parameters:    Size  Location     Type
;;  detection_ty    1    wreg     unsigned char 
;; Auto vars:     Size  Location     Type
;;  detection_ty    1    0[COMRAM] unsigned char 
;; Return value:  Size  Location     Type
;;                  1    wreg      unsigned char 
;; Registers used:
;;		wreg, status,2, status,0, cstack
;; Tracked objects:
;;		On entry : 0/0
;;		On exit  : 0/0
;;		Unchanged: 0/0
;; Data sizes:     COMRAM   BANK0   BANK1   BANK2   BANK3   BANK4   BANK5
;;      Params:         0       0       0       0       0       0       0
;;      Locals:         1       0       0       0       0       0       0
;;      Temps:          0       0       0       0       0       0       0
;;      Totals:         1       0       0       0       0       0       0
;;Total ram usage:        1 bytes
;; Hardware stack levels used:    1
;; Hardware stack levels required when called:    1
;; This function calls:
;;		_scan_key
;; This function is called by:
;;		_check_matrix_keypad
;; This function uses a non-reentrant model
;;
psect	text5,class=CODE,space=0,reloc=2
	line	128
global __ptext5
__ptext5:
psect	text5
	file	"main.c"
	line	128
	global	__size_of_read_switches
	__size_of_read_switches	equ	__end_of_read_switches-_read_switches
	
_read_switches:
;incstack = 0
	opt	stack 28
;read_switches@detection_type stored from wreg
	movwf	((c:read_switches@detection_type)),c
	line	132
	
l797:
;main.c: 130: static unsigned char once = 1, key;
;main.c: 132: if (detection_type == 1)
		decf	((c:read_switches@detection_type)),c,w
	btfss	status,2
	goto	u101
	goto	u100

u101:
	goto	l815
u100:
	line	134
	
l799:
;main.c: 133: {
;main.c: 134: key = scan_key();
	call	_scan_key	;wreg free
	movwf	((c:read_switches@key)),c
	line	135
	
l801:
;main.c: 135: if(key != 0xFF && once )
		incf	((c:read_switches@key)),c,w
	btfsc	status,2
	goto	u111
	goto	u110

u111:
	goto	l811
u110:
	
l803:
	movf	((c:read_switches@once)),c,w
	btfsc	status,2
	goto	u121
	goto	u120
u121:
	goto	l811
u120:
	line	137
	
l805:
;main.c: 136: {
;main.c: 137: once = 0;
	movlw	low(0)
	movwf	((c:read_switches@once)),c
	line	138
;main.c: 138: return key;
	movf	((c:read_switches@key)),c,w
	goto	l87
	
l807:
	goto	l87
	line	139
	
l809:
;main.c: 139: }
	goto	l821
	line	140
	
l86:
	
l811:
;main.c: 140: else if(key == 0xFF)
		incf	((c:read_switches@key)),c,w
	btfss	status,2
	goto	u131
	goto	u130

u131:
	goto	l821
u130:
	line	142
	
l813:
;main.c: 141: {
;main.c: 142: once = 1;
	movlw	low(01h)
	movwf	((c:read_switches@once)),c
	goto	l821
	line	143
	
l89:
	goto	l821
	line	144
	
l88:
;main.c: 143: }
;main.c: 144: }
	goto	l821
	line	145
	
l85:
	
l815:
;main.c: 145: else if (detection_type == 0)
	movf	((c:read_switches@detection_type)),c,w
	btfss	status,2
	goto	u141
	goto	u140
u141:
	goto	l821
u140:
	line	147
	
l817:
;main.c: 146: {
;main.c: 147: return scan_key();
	call	_scan_key	;wreg free
	goto	l87
	
l819:
	goto	l87
	line	148
	
l91:
	goto	l821
	line	150
	
l90:
	
l821:
;main.c: 148: }
;main.c: 150: return 0xFF;
	movlw	(0FFh)&0ffh
	goto	l87
	
l823:
	line	151
	
l87:
	return	;funcret
	opt stack 0
GLOBAL	__end_of_read_switches
	__end_of_read_switches:
	signat	_read_switches,4217
	global	_scan_key

;; *************** function _scan_key *****************
;; Defined at:
;;		line 152 in file "main.c"
;; Parameters:    Size  Location     Type
;;		None
;; Auto vars:     Size  Location     Type
;;		None
;; Return value:  Size  Location     Type
;;                  1    wreg      unsigned char 
;; Registers used:
;;		wreg
;; Tracked objects:
;;		On entry : 0/0
;;		On exit  : 0/0
;;		Unchanged: 0/0
;; Data sizes:     COMRAM   BANK0   BANK1   BANK2   BANK3   BANK4   BANK5
;;      Params:         0       0       0       0       0       0       0
;;      Locals:         0       0       0       0       0       0       0
;;      Temps:          0       0       0       0       0       0       0
;;      Totals:         0       0       0       0       0       0       0
;;Total ram usage:        0 bytes
;; Hardware stack levels used:    1
;; This function calls:
;;		Nothing
;; This function is called by:
;;		_read_switches
;; This function uses a non-reentrant model
;;
psect	text6,class=CODE,space=0,reloc=2
	line	152
global __ptext6
__ptext6:
psect	text6
	file	"main.c"
	line	152
	global	__size_of_scan_key
	__size_of_scan_key	equ	__end_of_scan_key-_scan_key
	
_scan_key:
;incstack = 0
	opt	stack 28
	line	154
	
l725:
;main.c: 154: PORTBbits.RB5 = 0;
	bcf	((c:3969)),c,5	;volatile
	line	155
;main.c: 155: PORTBbits.RB6 = 1;
	bsf	((c:3969)),c,6	;volatile
	line	156
;main.c: 156: PORTBbits.RB7 = 1;
	bsf	((c:3969)),c,7	;volatile
	line	158
;main.c: 158: if (PORTBbits.RB1 == 0)
	btfsc	((c:3969)),c,1	;volatile
	goto	u11
	goto	u10
u11:
	goto	l94
u10:
	line	160
	
l727:
;main.c: 159: {
;main.c: 160: return 1;
	movlw	(01h)&0ffh
	goto	l95
	
l729:
	goto	l95
	line	161
	
l731:
;main.c: 161: }
	goto	l96
	line	162
	
l94:
;main.c: 162: else if (PORTBbits.RB2 == 0)
	btfsc	((c:3969)),c,2	;volatile
	goto	u21
	goto	u20
u21:
	goto	l97
u20:
	line	164
	
l733:
;main.c: 163: {
;main.c: 164: return 4;
	movlw	(04h)&0ffh
	goto	l95
	
l735:
	goto	l95
	line	165
	
l737:
;main.c: 165: }
	goto	l96
	line	166
	
l97:
;main.c: 166: else if (PORTBbits.RB3 == 0)
	btfsc	((c:3969)),c,3	;volatile
	goto	u31
	goto	u30
u31:
	goto	l99
u30:
	line	168
	
l739:
;main.c: 167: {
;main.c: 168: return 7;
	movlw	(07h)&0ffh
	goto	l95
	
l741:
	goto	l95
	line	169
	
l743:
;main.c: 169: }
	goto	l96
	line	170
	
l99:
;main.c: 170: else if (PORTBbits.RB4 == 0)
	btfsc	((c:3969)),c,4	;volatile
	goto	u41
	goto	u40
u41:
	goto	l96
u40:
	line	172
	
l745:
;main.c: 171: {
;main.c: 172: return 10;
	movlw	(0Ah)&0ffh
	goto	l95
	
l747:
	goto	l95
	line	173
	
l101:
	goto	l96
	line	175
	
l100:
	goto	l96
	
l98:
	
l96:
;main.c: 173: }
;main.c: 175: PORTBbits.RB5 = 1;
	bsf	((c:3969)),c,5	;volatile
	line	176
;main.c: 176: PORTBbits.RB6 = 0;
	bcf	((c:3969)),c,6	;volatile
	line	177
;main.c: 177: PORTBbits.RB7 = 1;
	bsf	((c:3969)),c,7	;volatile
	line	179
;main.c: 179: if (PORTBbits.RB1 == 0)
	btfsc	((c:3969)),c,1	;volatile
	goto	u51
	goto	u50
u51:
	goto	l102
u50:
	line	181
	
l749:
;main.c: 180: {
;main.c: 181: return 2;
	movlw	(02h)&0ffh
	goto	l95
	
l751:
	goto	l95
	line	182
	
l753:
;main.c: 182: }
	goto	l771
	line	183
	
l102:
;main.c: 183: else if (PORTBbits.RB2 == 0)
	btfsc	((c:3969)),c,2	;volatile
	goto	u61
	goto	u60
u61:
	goto	l104
u60:
	line	185
	
l755:
;main.c: 184: {
;main.c: 185: return 5;
	movlw	(05h)&0ffh
	goto	l95
	
l757:
	goto	l95
	line	186
	
l759:
;main.c: 186: }
	goto	l771
	line	187
	
l104:
;main.c: 187: else if (PORTBbits.RB3 == 0)
	btfsc	((c:3969)),c,3	;volatile
	goto	u71
	goto	u70
u71:
	goto	l106
u70:
	line	189
	
l761:
;main.c: 188: {
;main.c: 189: return 8;
	movlw	(08h)&0ffh
	goto	l95
	
l763:
	goto	l95
	line	190
	
l765:
;main.c: 190: }
	goto	l771
	line	191
	
l106:
;main.c: 191: else if (PORTBbits.RB4 == 0)
	btfsc	((c:3969)),c,4	;volatile
	goto	u81
	goto	u80
u81:
	goto	l771
u80:
	line	193
	
l767:
;main.c: 192: {
;main.c: 193: return 11;
	movlw	(0Bh)&0ffh
	goto	l95
	
l769:
	goto	l95
	line	194
	
l108:
	goto	l771
	line	219
	
l107:
	goto	l771
	
l105:
	goto	l771
	
l103:
	
l771:
;main.c: 194: }
;main.c: 219: return 0xFF;
	movlw	(0FFh)&0ffh
	goto	l95
	
l773:
	line	220
	
l95:
	return	;funcret
	opt stack 0
GLOBAL	__end_of_scan_key
	__end_of_scan_key:
	signat	_scan_key,89
	global	_clcd_putch
psect	smallconst
	db 0	; dummy byte at the end
	global	__smallconst
	global	__mediumconst
	GLOBAL	__activetblptr
__activetblptr	EQU	1
	psect	intsave_regs,class=BIGRAM,space=1,noexec
	PSECT	rparam,class=COMRAM,space=1,noexec
	GLOBAL	__Lrparam
	FNCONF	rparam,??,?
	GLOBAL	___rparam_used
	___rparam_used EQU 1
	GLOBAL	___param_bank
	___param_bank EQU 16
GLOBAL	__Lparam, __Hparam
GLOBAL	__Lrparam, __Hrparam
__Lparam	EQU	__Lrparam
__Hparam	EQU	__Hrparam
	end
