opt subtitle "Microchip Technology Omniscient Code Generator v1.36 (Free mode) build 201601150325"

opt pagewidth 120

	opt lm

	processor	18F4580
porta	equ	0F80h
portb	equ	0F81h
portc	equ	0F82h
portd	equ	0F83h
porte	equ	0F84h
lata	equ	0F89h
latb	equ	0F8Ah
latc	equ	0F8Bh
latd	equ	0F8Ch
late	equ	0F8Dh
trisa	equ	0F92h
trisb	equ	0F93h
trisc	equ	0F94h
trisd	equ	0F95h
trise	equ	0F96h
pie1	equ	0F9Dh
pir1	equ	0F9Eh
ipr1	equ	0F9Fh
pie2	equ	0FA0h
pir2	equ	0FA1h
ipr2	equ	0FA2h
t3con	equ	0FB1h
tmr3l	equ	0FB2h
tmr3h	equ	0FB3h
ccp1con	equ	0FBDh
ccpr1l	equ	0FBEh
ccpr1h	equ	0FBFh
adcon1	equ	0FC1h
adcon0	equ	0FC2h
adresl	equ	0FC3h
adresh	equ	0FC4h
sspcon2	equ	0FC5h
sspcon1	equ	0FC6h
sspstat	equ	0FC7h
sspadd	equ	0FC8h
sspbuf	equ	0FC9h
t2con	equ	0FCAh
pr2	equ	0FCBh
tmr2	equ	0FCCh
t1con	equ	0FCDh
tmr1l	equ	0FCEh
tmr1h	equ	0FCFh
rcon	equ	0FD0h
wdtcon	equ	0FD1h
lvdcon	equ	0FD2h
osccon	equ	0FD3h
t0con	equ	0FD5h
tmr0l	equ	0FD6h
tmr0h	equ	0FD7h
status	equ	0FD8h
fsr2	equ	0FD9h
fsr2l	equ	0FD9h
fsr2h	equ	0FDAh
plusw2	equ	0FDBh
preinc2	equ	0FDCh
postdec2	equ	0FDDh
postinc2	equ	0FDEh
indf2	equ	0FDFh
bsr	equ	0FE0h
fsr1	equ	0FE1h
fsr1l	equ	0FE1h
fsr1h	equ	0FE2h
plusw1	equ	0FE3h
preinc1	equ	0FE4h
postdec1	equ	0FE5h
postinc1	equ	0FE6h
indf1	equ	0FE7h
wreg	equ	0FE8h
fsr0	equ	0FE9h
fsr0l	equ	0FE9h
fsr0h	equ	0FEAh
plusw0	equ	0FEBh
preinc0	equ	0FECh
postdec0	equ	0FEDh
postinc0	equ	0FEEh
indf0	equ	0FEFh
intcon3	equ	0FF0h
intcon2	equ	0FF1h
intcon	equ	0FF2h
prod	equ	0FF3h
prodl	equ	0FF3h
prodh	equ	0FF4h
tablat	equ	0FF5h
tblptr	equ	0FF6h
tblptrl	equ	0FF6h
tblptrh	equ	0FF7h
tblptru	equ	0FF8h
pcl	equ	0FF9h
pclat	equ	0FFAh
pclath	equ	0FFAh
pclatu	equ	0FFBh
stkptr	equ	0FFCh
tosl	equ	0FFDh
tosh	equ	0FFEh
tosu	equ	0FFFh
clrc   macro
	bcf	status,0
endm
setc   macro
	bsf	status,0
endm
clrz   macro
	bcf	status,2
endm
setz   macro
	bsf	status,2
endm
skipnz macro
	btfsc	status,2
endm
skipz  macro
	btfss	status,2
endm
skipnc macro
	btfsc	status,0
endm
skipc  macro
	btfss	status,0
endm
pushw macro
	movwf postinc1
endm
pushf macro arg1
	movff arg1, postinc1
endm
popw macro
	movf postdec1,f
	movf indf1,w
endm
popf macro arg1
	movf postdec1,f
	movff indf1,arg1
endm
popfc macro arg1
	movff plusw1,arg1
	decfsz fsr1,f
endm
	global	__ramtop
	global	__accesstop
# 51 "/opt/microchip/xc8/v1.36/include/pic18f4580.h"
RXF6SIDH equ 0D60h ;# 
# 183 "/opt/microchip/xc8/v1.36/include/pic18f4580.h"
RXF6SIDL equ 0D61h ;# 
# 296 "/opt/microchip/xc8/v1.36/include/pic18f4580.h"
RXF6EIDH equ 0D62h ;# 
# 428 "/opt/microchip/xc8/v1.36/include/pic18f4580.h"
RXF6EIDL equ 0D63h ;# 
# 560 "/opt/microchip/xc8/v1.36/include/pic18f4580.h"
RXF7SIDH equ 0D64h ;# 
# 692 "/opt/microchip/xc8/v1.36/include/pic18f4580.h"
RXF7SIDL equ 0D65h ;# 
# 805 "/opt/microchip/xc8/v1.36/include/pic18f4580.h"
RXF7EIDH equ 0D66h ;# 
# 937 "/opt/microchip/xc8/v1.36/include/pic18f4580.h"
RXF7EIDL equ 0D67h ;# 
# 1069 "/opt/microchip/xc8/v1.36/include/pic18f4580.h"
RXF8SIDH equ 0D68h ;# 
# 1201 "/opt/microchip/xc8/v1.36/include/pic18f4580.h"
RXF8SIDL equ 0D69h ;# 
# 1314 "/opt/microchip/xc8/v1.36/include/pic18f4580.h"
RXF8EIDH equ 0D6Ah ;# 
# 1446 "/opt/microchip/xc8/v1.36/include/pic18f4580.h"
RXF8EIDL equ 0D6Bh ;# 
# 1578 "/opt/microchip/xc8/v1.36/include/pic18f4580.h"
RXF9SIDH equ 0D70h ;# 
# 1710 "/opt/microchip/xc8/v1.36/include/pic18f4580.h"
RXF9SIDL equ 0D71h ;# 
# 1823 "/opt/microchip/xc8/v1.36/include/pic18f4580.h"
RXF9EIDH equ 0D72h ;# 
# 1955 "/opt/microchip/xc8/v1.36/include/pic18f4580.h"
RXF9EIDL equ 0D73h ;# 
# 2087 "/opt/microchip/xc8/v1.36/include/pic18f4580.h"
RXF10SIDH equ 0D74h ;# 
# 2219 "/opt/microchip/xc8/v1.36/include/pic18f4580.h"
RXF10SIDL equ 0D75h ;# 
# 2332 "/opt/microchip/xc8/v1.36/include/pic18f4580.h"
RXF10EIDH equ 0D76h ;# 
# 2464 "/opt/microchip/xc8/v1.36/include/pic18f4580.h"
RXF10EIDL equ 0D77h ;# 
# 2596 "/opt/microchip/xc8/v1.36/include/pic18f4580.h"
RXF11SIDH equ 0D78h ;# 
# 2728 "/opt/microchip/xc8/v1.36/include/pic18f4580.h"
RXF11SIDL equ 0D79h ;# 
# 2841 "/opt/microchip/xc8/v1.36/include/pic18f4580.h"
RXF11EIDH equ 0D7Ah ;# 
# 2973 "/opt/microchip/xc8/v1.36/include/pic18f4580.h"
RXF11EIDL equ 0D7Bh ;# 
# 3105 "/opt/microchip/xc8/v1.36/include/pic18f4580.h"
RXF12SIDH equ 0D80h ;# 
# 3237 "/opt/microchip/xc8/v1.36/include/pic18f4580.h"
RXF12SIDL equ 0D81h ;# 
# 3350 "/opt/microchip/xc8/v1.36/include/pic18f4580.h"
RXF12EIDH equ 0D82h ;# 
# 3482 "/opt/microchip/xc8/v1.36/include/pic18f4580.h"
RXF12EIDL equ 0D83h ;# 
# 3614 "/opt/microchip/xc8/v1.36/include/pic18f4580.h"
RXF13SIDH equ 0D84h ;# 
# 3746 "/opt/microchip/xc8/v1.36/include/pic18f4580.h"
RXF13SIDL equ 0D85h ;# 
# 3859 "/opt/microchip/xc8/v1.36/include/pic18f4580.h"
RXF13EIDH equ 0D86h ;# 
# 3991 "/opt/microchip/xc8/v1.36/include/pic18f4580.h"
RXF13EIDL equ 0D87h ;# 
# 4123 "/opt/microchip/xc8/v1.36/include/pic18f4580.h"
RXF14SIDH equ 0D88h ;# 
# 4255 "/opt/microchip/xc8/v1.36/include/pic18f4580.h"
RXF14SIDL equ 0D89h ;# 
# 4368 "/opt/microchip/xc8/v1.36/include/pic18f4580.h"
RXF14EIDH equ 0D8Ah ;# 
# 4500 "/opt/microchip/xc8/v1.36/include/pic18f4580.h"
RXF14EIDL equ 0D8Bh ;# 
# 4632 "/opt/microchip/xc8/v1.36/include/pic18f4580.h"
RXF15SIDH equ 0D90h ;# 
# 4764 "/opt/microchip/xc8/v1.36/include/pic18f4580.h"
RXF15SIDL equ 0D91h ;# 
# 4877 "/opt/microchip/xc8/v1.36/include/pic18f4580.h"
RXF15EIDH equ 0D92h ;# 
# 5009 "/opt/microchip/xc8/v1.36/include/pic18f4580.h"
RXF15EIDL equ 0D93h ;# 
# 5141 "/opt/microchip/xc8/v1.36/include/pic18f4580.h"
RXFCON0 equ 0DD4h ;# 
# 5202 "/opt/microchip/xc8/v1.36/include/pic18f4580.h"
RXFCON1 equ 0DD5h ;# 
# 5263 "/opt/microchip/xc8/v1.36/include/pic18f4580.h"
SDFLC equ 0DD8h ;# 
# 5338 "/opt/microchip/xc8/v1.36/include/pic18f4580.h"
RXFBCON0 equ 0DE0h ;# 
# 5407 "/opt/microchip/xc8/v1.36/include/pic18f4580.h"
RXFBCON1 equ 0DE1h ;# 
# 5476 "/opt/microchip/xc8/v1.36/include/pic18f4580.h"
RXFBCON2 equ 0DE2h ;# 
# 5545 "/opt/microchip/xc8/v1.36/include/pic18f4580.h"
RXFBCON3 equ 0DE3h ;# 
# 5614 "/opt/microchip/xc8/v1.36/include/pic18f4580.h"
RXFBCON4 equ 0DE4h ;# 
# 5683 "/opt/microchip/xc8/v1.36/include/pic18f4580.h"
RXFBCON5 equ 0DE5h ;# 
# 5752 "/opt/microchip/xc8/v1.36/include/pic18f4580.h"
RXFBCON6 equ 0DE6h ;# 
# 5821 "/opt/microchip/xc8/v1.36/include/pic18f4580.h"
RXFBCON7 equ 0DE7h ;# 
# 5890 "/opt/microchip/xc8/v1.36/include/pic18f4580.h"
MSEL0 equ 0DF0h ;# 
# 5951 "/opt/microchip/xc8/v1.36/include/pic18f4580.h"
MSEL1 equ 0DF1h ;# 
# 6012 "/opt/microchip/xc8/v1.36/include/pic18f4580.h"
MSEL2 equ 0DF2h ;# 
# 6073 "/opt/microchip/xc8/v1.36/include/pic18f4580.h"
MSEL3 equ 0DF3h ;# 
# 6134 "/opt/microchip/xc8/v1.36/include/pic18f4580.h"
BSEL0 equ 0DF8h ;# 
# 6184 "/opt/microchip/xc8/v1.36/include/pic18f4580.h"
BIE0 equ 0DFAh ;# 
# 6262 "/opt/microchip/xc8/v1.36/include/pic18f4580.h"
TXBIE equ 0DFCh ;# 
# 6321 "/opt/microchip/xc8/v1.36/include/pic18f4580.h"
B0CON equ 0E20h ;# 
# 6633 "/opt/microchip/xc8/v1.36/include/pic18f4580.h"
B0SIDH equ 0E21h ;# 
# 6765 "/opt/microchip/xc8/v1.36/include/pic18f4580.h"
B0SIDL equ 0E22h ;# 
# 6892 "/opt/microchip/xc8/v1.36/include/pic18f4580.h"
B0EIDH equ 0E23h ;# 
# 7024 "/opt/microchip/xc8/v1.36/include/pic18f4580.h"
B0EIDL equ 0E24h ;# 
# 7156 "/opt/microchip/xc8/v1.36/include/pic18f4580.h"
B0DLC equ 0E25h ;# 
# 7303 "/opt/microchip/xc8/v1.36/include/pic18f4580.h"
B0D0 equ 0E26h ;# 
# 7364 "/opt/microchip/xc8/v1.36/include/pic18f4580.h"
B0D1 equ 0E27h ;# 
# 7425 "/opt/microchip/xc8/v1.36/include/pic18f4580.h"
B0D2 equ 0E28h ;# 
# 7486 "/opt/microchip/xc8/v1.36/include/pic18f4580.h"
B0D3 equ 0E29h ;# 
# 7547 "/opt/microchip/xc8/v1.36/include/pic18f4580.h"
B0D4 equ 0E2Ah ;# 
# 7608 "/opt/microchip/xc8/v1.36/include/pic18f4580.h"
B0D5 equ 0E2Bh ;# 
# 7669 "/opt/microchip/xc8/v1.36/include/pic18f4580.h"
B0D6 equ 0E2Ch ;# 
# 7730 "/opt/microchip/xc8/v1.36/include/pic18f4580.h"
B0D7 equ 0E2Dh ;# 
# 7791 "/opt/microchip/xc8/v1.36/include/pic18f4580.h"
CANSTAT_RO9 equ 0E2Eh ;# 
# 7884 "/opt/microchip/xc8/v1.36/include/pic18f4580.h"
CANCON_RO9 equ 0E2Fh ;# 
# 7966 "/opt/microchip/xc8/v1.36/include/pic18f4580.h"
B1CON equ 0E30h ;# 
# 8278 "/opt/microchip/xc8/v1.36/include/pic18f4580.h"
B1SIDH equ 0E31h ;# 
# 8410 "/opt/microchip/xc8/v1.36/include/pic18f4580.h"
B1SIDL equ 0E32h ;# 
# 8537 "/opt/microchip/xc8/v1.36/include/pic18f4580.h"
B1EIDH equ 0E33h ;# 
# 8669 "/opt/microchip/xc8/v1.36/include/pic18f4580.h"
B1EIDL equ 0E34h ;# 
# 8801 "/opt/microchip/xc8/v1.36/include/pic18f4580.h"
B1DLC equ 0E35h ;# 
# 8948 "/opt/microchip/xc8/v1.36/include/pic18f4580.h"
B1D0 equ 0E36h ;# 
# 9009 "/opt/microchip/xc8/v1.36/include/pic18f4580.h"
B1D1 equ 0E37h ;# 
# 9070 "/opt/microchip/xc8/v1.36/include/pic18f4580.h"
B1D2 equ 0E38h ;# 
# 9131 "/opt/microchip/xc8/v1.36/include/pic18f4580.h"
B1D3 equ 0E39h ;# 
# 9192 "/opt/microchip/xc8/v1.36/include/pic18f4580.h"
B1D4 equ 0E3Ah ;# 
# 9253 "/opt/microchip/xc8/v1.36/include/pic18f4580.h"
B1D5 equ 0E3Bh ;# 
# 9314 "/opt/microchip/xc8/v1.36/include/pic18f4580.h"
B1D6 equ 0E3Ch ;# 
# 9375 "/opt/microchip/xc8/v1.36/include/pic18f4580.h"
B1D7 equ 0E3Dh ;# 
# 9436 "/opt/microchip/xc8/v1.36/include/pic18f4580.h"
CANSTAT_RO8 equ 0E3Eh ;# 
# 9529 "/opt/microchip/xc8/v1.36/include/pic18f4580.h"
CANCON_RO8 equ 0E3Fh ;# 
# 9611 "/opt/microchip/xc8/v1.36/include/pic18f4580.h"
B2CON equ 0E40h ;# 
# 9923 "/opt/microchip/xc8/v1.36/include/pic18f4580.h"
B2SIDH equ 0E41h ;# 
# 10055 "/opt/microchip/xc8/v1.36/include/pic18f4580.h"
B2SIDL equ 0E42h ;# 
# 10191 "/opt/microchip/xc8/v1.36/include/pic18f4580.h"
B2EIDH equ 0E43h ;# 
# 10323 "/opt/microchip/xc8/v1.36/include/pic18f4580.h"
B2EIDL equ 0E44h ;# 
# 10455 "/opt/microchip/xc8/v1.36/include/pic18f4580.h"
B2DLC equ 0E45h ;# 
# 10602 "/opt/microchip/xc8/v1.36/include/pic18f4580.h"
B2D0 equ 0E46h ;# 
# 10663 "/opt/microchip/xc8/v1.36/include/pic18f4580.h"
B2D1 equ 0E47h ;# 
# 10724 "/opt/microchip/xc8/v1.36/include/pic18f4580.h"
B2D2 equ 0E48h ;# 
# 10785 "/opt/microchip/xc8/v1.36/include/pic18f4580.h"
B2D3 equ 0E49h ;# 
# 10846 "/opt/microchip/xc8/v1.36/include/pic18f4580.h"
B2D4 equ 0E4Ah ;# 
# 10907 "/opt/microchip/xc8/v1.36/include/pic18f4580.h"
B2D5 equ 0E4Bh ;# 
# 10968 "/opt/microchip/xc8/v1.36/include/pic18f4580.h"
B2D6 equ 0E4Ch ;# 
# 11029 "/opt/microchip/xc8/v1.36/include/pic18f4580.h"
B2D7 equ 0E4Dh ;# 
# 11090 "/opt/microchip/xc8/v1.36/include/pic18f4580.h"
CANSTAT_RO7 equ 0E4Eh ;# 
# 11183 "/opt/microchip/xc8/v1.36/include/pic18f4580.h"
CANCON_RO7 equ 0E4Fh ;# 
# 11265 "/opt/microchip/xc8/v1.36/include/pic18f4580.h"
B3CON equ 0E50h ;# 
# 11577 "/opt/microchip/xc8/v1.36/include/pic18f4580.h"
B3SIDH equ 0E51h ;# 
# 11709 "/opt/microchip/xc8/v1.36/include/pic18f4580.h"
B3SIDL equ 0E52h ;# 
# 11845 "/opt/microchip/xc8/v1.36/include/pic18f4580.h"
B3EIDH equ 0E53h ;# 
# 11977 "/opt/microchip/xc8/v1.36/include/pic18f4580.h"
B3EIDL equ 0E54h ;# 
# 12109 "/opt/microchip/xc8/v1.36/include/pic18f4580.h"
B3DLC equ 0E55h ;# 
# 12256 "/opt/microchip/xc8/v1.36/include/pic18f4580.h"
B3D0 equ 0E56h ;# 
# 12317 "/opt/microchip/xc8/v1.36/include/pic18f4580.h"
B3D1 equ 0E57h ;# 
# 12378 "/opt/microchip/xc8/v1.36/include/pic18f4580.h"
B3D2 equ 0E58h ;# 
# 12439 "/opt/microchip/xc8/v1.36/include/pic18f4580.h"
B3D3 equ 0E59h ;# 
# 12500 "/opt/microchip/xc8/v1.36/include/pic18f4580.h"
B3D4 equ 0E5Ah ;# 
# 12561 "/opt/microchip/xc8/v1.36/include/pic18f4580.h"
B3D5 equ 0E5Bh ;# 
# 12622 "/opt/microchip/xc8/v1.36/include/pic18f4580.h"
B3D6 equ 0E5Ch ;# 
# 12683 "/opt/microchip/xc8/v1.36/include/pic18f4580.h"
B3D7 equ 0E5Dh ;# 
# 12744 "/opt/microchip/xc8/v1.36/include/pic18f4580.h"
CANSTAT_RO6 equ 0E5Eh ;# 
# 12837 "/opt/microchip/xc8/v1.36/include/pic18f4580.h"
CANCON_RO6 equ 0E5Fh ;# 
# 12919 "/opt/microchip/xc8/v1.36/include/pic18f4580.h"
B4CON equ 0E60h ;# 
# 13231 "/opt/microchip/xc8/v1.36/include/pic18f4580.h"
B4SIDH equ 0E61h ;# 
# 13363 "/opt/microchip/xc8/v1.36/include/pic18f4580.h"
B4SIDL equ 0E62h ;# 
# 13499 "/opt/microchip/xc8/v1.36/include/pic18f4580.h"
B4EIDH equ 0E63h ;# 
# 13631 "/opt/microchip/xc8/v1.36/include/pic18f4580.h"
B4EIDL equ 0E64h ;# 
# 13763 "/opt/microchip/xc8/v1.36/include/pic18f4580.h"
B4DLC equ 0E65h ;# 
# 13910 "/opt/microchip/xc8/v1.36/include/pic18f4580.h"
B4D0 equ 0E66h ;# 
# 13971 "/opt/microchip/xc8/v1.36/include/pic18f4580.h"
B4D1 equ 0E67h ;# 
# 14032 "/opt/microchip/xc8/v1.36/include/pic18f4580.h"
B4D2 equ 0E68h ;# 
# 14093 "/opt/microchip/xc8/v1.36/include/pic18f4580.h"
B4D3 equ 0E69h ;# 
# 14154 "/opt/microchip/xc8/v1.36/include/pic18f4580.h"
B4D4 equ 0E6Ah ;# 
# 14215 "/opt/microchip/xc8/v1.36/include/pic18f4580.h"
B4D5 equ 0E6Bh ;# 
# 14276 "/opt/microchip/xc8/v1.36/include/pic18f4580.h"
B4D6 equ 0E6Ch ;# 
# 14337 "/opt/microchip/xc8/v1.36/include/pic18f4580.h"
B4D7 equ 0E6Dh ;# 
# 14407 "/opt/microchip/xc8/v1.36/include/pic18f4580.h"
CANSTAT_RO5 equ 0E6Eh ;# 
# 14500 "/opt/microchip/xc8/v1.36/include/pic18f4580.h"
CANCON_RO5 equ 0E6Fh ;# 
# 14582 "/opt/microchip/xc8/v1.36/include/pic18f4580.h"
B5CON equ 0E70h ;# 
# 14894 "/opt/microchip/xc8/v1.36/include/pic18f4580.h"
B5SIDH equ 0E71h ;# 
# 15026 "/opt/microchip/xc8/v1.36/include/pic18f4580.h"
B5SIDL equ 0E72h ;# 
# 15171 "/opt/microchip/xc8/v1.36/include/pic18f4580.h"
B5EIDH equ 0E73h ;# 
# 15303 "/opt/microchip/xc8/v1.36/include/pic18f4580.h"
B5EIDL equ 0E74h ;# 
# 15435 "/opt/microchip/xc8/v1.36/include/pic18f4580.h"
B5DLC equ 0E75h ;# 
# 15576 "/opt/microchip/xc8/v1.36/include/pic18f4580.h"
B5D0 equ 0E76h ;# 
# 15646 "/opt/microchip/xc8/v1.36/include/pic18f4580.h"
B5D1 equ 0E77h ;# 
# 15707 "/opt/microchip/xc8/v1.36/include/pic18f4580.h"
B5D2 equ 0E78h ;# 
# 15777 "/opt/microchip/xc8/v1.36/include/pic18f4580.h"
B5D3 equ 0E79h ;# 
# 15838 "/opt/microchip/xc8/v1.36/include/pic18f4580.h"
B5D4 equ 0E7Ah ;# 
# 15899 "/opt/microchip/xc8/v1.36/include/pic18f4580.h"
B5D5 equ 0E7Bh ;# 
# 15960 "/opt/microchip/xc8/v1.36/include/pic18f4580.h"
B5D6 equ 0E7Ch ;# 
# 16021 "/opt/microchip/xc8/v1.36/include/pic18f4580.h"
B5D7 equ 0E7Dh ;# 
# 16082 "/opt/microchip/xc8/v1.36/include/pic18f4580.h"
CANSTAT_RO4 equ 0E7Eh ;# 
# 16175 "/opt/microchip/xc8/v1.36/include/pic18f4580.h"
CANCON_RO4 equ 0E7Fh ;# 
# 16257 "/opt/microchip/xc8/v1.36/include/pic18f4580.h"
RXF0SIDH equ 0F00h ;# 
# 16389 "/opt/microchip/xc8/v1.36/include/pic18f4580.h"
RXF0SIDL equ 0F01h ;# 
# 16502 "/opt/microchip/xc8/v1.36/include/pic18f4580.h"
RXF0EIDH equ 0F02h ;# 
# 16634 "/opt/microchip/xc8/v1.36/include/pic18f4580.h"
RXF0EIDL equ 0F03h ;# 
# 16766 "/opt/microchip/xc8/v1.36/include/pic18f4580.h"
RXF1SIDH equ 0F04h ;# 
# 16898 "/opt/microchip/xc8/v1.36/include/pic18f4580.h"
RXF1SIDL equ 0F05h ;# 
# 17011 "/opt/microchip/xc8/v1.36/include/pic18f4580.h"
RXF1EIDH equ 0F06h ;# 
# 17143 "/opt/microchip/xc8/v1.36/include/pic18f4580.h"
RXF1EIDL equ 0F07h ;# 
# 17275 "/opt/microchip/xc8/v1.36/include/pic18f4580.h"
RXF2SIDH equ 0F08h ;# 
# 17407 "/opt/microchip/xc8/v1.36/include/pic18f4580.h"
RXF2SIDL equ 0F09h ;# 
# 17520 "/opt/microchip/xc8/v1.36/include/pic18f4580.h"
RXF2EIDH equ 0F0Ah ;# 
# 17652 "/opt/microchip/xc8/v1.36/include/pic18f4580.h"
RXF2EIDL equ 0F0Bh ;# 
# 17784 "/opt/microchip/xc8/v1.36/include/pic18f4580.h"
RXF3SIDH equ 0F0Ch ;# 
# 17916 "/opt/microchip/xc8/v1.36/include/pic18f4580.h"
RXF3SIDL equ 0F0Dh ;# 
# 18029 "/opt/microchip/xc8/v1.36/include/pic18f4580.h"
RXF3EIDH equ 0F0Eh ;# 
# 18161 "/opt/microchip/xc8/v1.36/include/pic18f4580.h"
RXF3EIDL equ 0F0Fh ;# 
# 18293 "/opt/microchip/xc8/v1.36/include/pic18f4580.h"
RXF4SIDH equ 0F10h ;# 
# 18425 "/opt/microchip/xc8/v1.36/include/pic18f4580.h"
RXF4SIDL equ 0F11h ;# 
# 18538 "/opt/microchip/xc8/v1.36/include/pic18f4580.h"
RXF4EIDH equ 0F12h ;# 
# 18670 "/opt/microchip/xc8/v1.36/include/pic18f4580.h"
RXF4EIDL equ 0F13h ;# 
# 18802 "/opt/microchip/xc8/v1.36/include/pic18f4580.h"
RXF5SIDH equ 0F14h ;# 
# 18934 "/opt/microchip/xc8/v1.36/include/pic18f4580.h"
RXF5SIDL equ 0F15h ;# 
# 19047 "/opt/microchip/xc8/v1.36/include/pic18f4580.h"
RXF5EIDH equ 0F16h ;# 
# 19179 "/opt/microchip/xc8/v1.36/include/pic18f4580.h"
RXF5EIDL equ 0F17h ;# 
# 19311 "/opt/microchip/xc8/v1.36/include/pic18f4580.h"
RXM0SIDH equ 0F18h ;# 
# 19443 "/opt/microchip/xc8/v1.36/include/pic18f4580.h"
RXM0SIDL equ 0F19h ;# 
# 19547 "/opt/microchip/xc8/v1.36/include/pic18f4580.h"
RXM0EIDH equ 0F1Ah ;# 
# 19679 "/opt/microchip/xc8/v1.36/include/pic18f4580.h"
RXM0EIDL equ 0F1Bh ;# 
# 19811 "/opt/microchip/xc8/v1.36/include/pic18f4580.h"
RXM1SIDH equ 0F1Ch ;# 
# 19943 "/opt/microchip/xc8/v1.36/include/pic18f4580.h"
RXM1SIDL equ 0F1Dh ;# 
# 20047 "/opt/microchip/xc8/v1.36/include/pic18f4580.h"
RXM1EIDH equ 0F1Eh ;# 
# 20179 "/opt/microchip/xc8/v1.36/include/pic18f4580.h"
RXM1EIDL equ 0F1Fh ;# 
# 20311 "/opt/microchip/xc8/v1.36/include/pic18f4580.h"
TXB2CON equ 0F20h ;# 
# 20438 "/opt/microchip/xc8/v1.36/include/pic18f4580.h"
TXB2SIDH equ 0F21h ;# 
# 20570 "/opt/microchip/xc8/v1.36/include/pic18f4580.h"
TXB2SIDL equ 0F22h ;# 
# 20674 "/opt/microchip/xc8/v1.36/include/pic18f4580.h"
TXB2EIDH equ 0F23h ;# 
# 20806 "/opt/microchip/xc8/v1.36/include/pic18f4580.h"
TXB2EIDL equ 0F24h ;# 
# 20938 "/opt/microchip/xc8/v1.36/include/pic18f4580.h"
TXB2DLC equ 0F25h ;# 
# 21026 "/opt/microchip/xc8/v1.36/include/pic18f4580.h"
TXB2D0 equ 0F26h ;# 
# 21087 "/opt/microchip/xc8/v1.36/include/pic18f4580.h"
TXB2D1 equ 0F27h ;# 
# 21148 "/opt/microchip/xc8/v1.36/include/pic18f4580.h"
TXB2D2 equ 0F28h ;# 
# 21209 "/opt/microchip/xc8/v1.36/include/pic18f4580.h"
TXB2D3 equ 0F29h ;# 
# 21270 "/opt/microchip/xc8/v1.36/include/pic18f4580.h"
TXB2D4 equ 0F2Ah ;# 
# 21331 "/opt/microchip/xc8/v1.36/include/pic18f4580.h"
TXB2D5 equ 0F2Bh ;# 
# 21392 "/opt/microchip/xc8/v1.36/include/pic18f4580.h"
TXB2D6 equ 0F2Ch ;# 
# 21453 "/opt/microchip/xc8/v1.36/include/pic18f4580.h"
TXB2D7 equ 0F2Dh ;# 
# 21514 "/opt/microchip/xc8/v1.36/include/pic18f4580.h"
CANSTAT_RO3 equ 0F2Eh ;# 
# 21607 "/opt/microchip/xc8/v1.36/include/pic18f4580.h"
CANCON_RO3 equ 0F2Fh ;# 
# 21689 "/opt/microchip/xc8/v1.36/include/pic18f4580.h"
TXB1CON equ 0F30h ;# 
# 21816 "/opt/microchip/xc8/v1.36/include/pic18f4580.h"
TXB1SIDH equ 0F31h ;# 
# 21948 "/opt/microchip/xc8/v1.36/include/pic18f4580.h"
TXB1SIDL equ 0F32h ;# 
# 22052 "/opt/microchip/xc8/v1.36/include/pic18f4580.h"
TXB1EIDH equ 0F33h ;# 
# 22184 "/opt/microchip/xc8/v1.36/include/pic18f4580.h"
TXB1EIDL equ 0F34h ;# 
# 22316 "/opt/microchip/xc8/v1.36/include/pic18f4580.h"
TXB1DLC equ 0F35h ;# 
# 22404 "/opt/microchip/xc8/v1.36/include/pic18f4580.h"
TXB1D0 equ 0F36h ;# 
# 22465 "/opt/microchip/xc8/v1.36/include/pic18f4580.h"
TXB1D1 equ 0F37h ;# 
# 22526 "/opt/microchip/xc8/v1.36/include/pic18f4580.h"
TXB1D2 equ 0F38h ;# 
# 22587 "/opt/microchip/xc8/v1.36/include/pic18f4580.h"
TXB1D3 equ 0F39h ;# 
# 22648 "/opt/microchip/xc8/v1.36/include/pic18f4580.h"
TXB1D4 equ 0F3Ah ;# 
# 22709 "/opt/microchip/xc8/v1.36/include/pic18f4580.h"
TXB1D5 equ 0F3Bh ;# 
# 22770 "/opt/microchip/xc8/v1.36/include/pic18f4580.h"
TXB1D6 equ 0F3Ch ;# 
# 22831 "/opt/microchip/xc8/v1.36/include/pic18f4580.h"
TXB1D7 equ 0F3Dh ;# 
# 22892 "/opt/microchip/xc8/v1.36/include/pic18f4580.h"
CANSTAT_RO2 equ 0F3Eh ;# 
# 22985 "/opt/microchip/xc8/v1.36/include/pic18f4580.h"
CANCON_RO2 equ 0F3Fh ;# 
# 23067 "/opt/microchip/xc8/v1.36/include/pic18f4580.h"
TXB0CON equ 0F40h ;# 
# 23185 "/opt/microchip/xc8/v1.36/include/pic18f4580.h"
TXB0SIDH equ 0F41h ;# 
# 23317 "/opt/microchip/xc8/v1.36/include/pic18f4580.h"
TXB0SIDL equ 0F42h ;# 
# 23421 "/opt/microchip/xc8/v1.36/include/pic18f4580.h"
TXB0EIDH equ 0F43h ;# 
# 23553 "/opt/microchip/xc8/v1.36/include/pic18f4580.h"
TXB0EIDL equ 0F44h ;# 
# 23685 "/opt/microchip/xc8/v1.36/include/pic18f4580.h"
TXB0DLC equ 0F45h ;# 
# 23773 "/opt/microchip/xc8/v1.36/include/pic18f4580.h"
TXB0D0 equ 0F46h ;# 
# 23834 "/opt/microchip/xc8/v1.36/include/pic18f4580.h"
TXB0D1 equ 0F47h ;# 
# 23895 "/opt/microchip/xc8/v1.36/include/pic18f4580.h"
TXB0D2 equ 0F48h ;# 
# 23956 "/opt/microchip/xc8/v1.36/include/pic18f4580.h"
TXB0D3 equ 0F49h ;# 
# 24017 "/opt/microchip/xc8/v1.36/include/pic18f4580.h"
TXB0D4 equ 0F4Ah ;# 
# 24078 "/opt/microchip/xc8/v1.36/include/pic18f4580.h"
TXB0D5 equ 0F4Bh ;# 
# 24139 "/opt/microchip/xc8/v1.36/include/pic18f4580.h"
TXB0D6 equ 0F4Ch ;# 
# 24200 "/opt/microchip/xc8/v1.36/include/pic18f4580.h"
TXB0D7 equ 0F4Dh ;# 
# 24261 "/opt/microchip/xc8/v1.36/include/pic18f4580.h"
CANSTAT_RO1 equ 0F4Eh ;# 
# 24354 "/opt/microchip/xc8/v1.36/include/pic18f4580.h"
CANCON_RO1 equ 0F4Fh ;# 
# 24436 "/opt/microchip/xc8/v1.36/include/pic18f4580.h"
RXB1CON equ 0F50h ;# 
# 24618 "/opt/microchip/xc8/v1.36/include/pic18f4580.h"
RXB1SIDH equ 0F51h ;# 
# 24750 "/opt/microchip/xc8/v1.36/include/pic18f4580.h"
RXB1SIDL equ 0F52h ;# 
# 24868 "/opt/microchip/xc8/v1.36/include/pic18f4580.h"
RXB1EIDH equ 0F53h ;# 
# 25000 "/opt/microchip/xc8/v1.36/include/pic18f4580.h"
RXB1EIDL equ 0F54h ;# 
# 25132 "/opt/microchip/xc8/v1.36/include/pic18f4580.h"
RXB1DLC equ 0F55h ;# 
# 25264 "/opt/microchip/xc8/v1.36/include/pic18f4580.h"
RXB1D0 equ 0F56h ;# 
# 25325 "/opt/microchip/xc8/v1.36/include/pic18f4580.h"
RXB1D1 equ 0F57h ;# 
# 25386 "/opt/microchip/xc8/v1.36/include/pic18f4580.h"
RXB1D2 equ 0F58h ;# 
# 25447 "/opt/microchip/xc8/v1.36/include/pic18f4580.h"
RXB1D3 equ 0F59h ;# 
# 25508 "/opt/microchip/xc8/v1.36/include/pic18f4580.h"
RXB1D4 equ 0F5Ah ;# 
# 25569 "/opt/microchip/xc8/v1.36/include/pic18f4580.h"
RXB1D5 equ 0F5Bh ;# 
# 25630 "/opt/microchip/xc8/v1.36/include/pic18f4580.h"
RXB1D6 equ 0F5Ch ;# 
# 25691 "/opt/microchip/xc8/v1.36/include/pic18f4580.h"
RXB1D7 equ 0F5Dh ;# 
# 25752 "/opt/microchip/xc8/v1.36/include/pic18f4580.h"
CANSTAT_RO0 equ 0F5Eh ;# 
# 25845 "/opt/microchip/xc8/v1.36/include/pic18f4580.h"
CANCON_RO0 equ 0F5Fh ;# 
# 25927 "/opt/microchip/xc8/v1.36/include/pic18f4580.h"
RXB0CON equ 0F60h ;# 
# 26142 "/opt/microchip/xc8/v1.36/include/pic18f4580.h"
RXB0SIDH equ 0F61h ;# 
# 26274 "/opt/microchip/xc8/v1.36/include/pic18f4580.h"
RXB0SIDL equ 0F62h ;# 
# 26392 "/opt/microchip/xc8/v1.36/include/pic18f4580.h"
RXB0EIDH equ 0F63h ;# 
# 26524 "/opt/microchip/xc8/v1.36/include/pic18f4580.h"
RXB0EIDL equ 0F64h ;# 
# 26656 "/opt/microchip/xc8/v1.36/include/pic18f4580.h"
RXB0DLC equ 0F65h ;# 
# 26788 "/opt/microchip/xc8/v1.36/include/pic18f4580.h"
RXB0D0 equ 0F66h ;# 
# 26849 "/opt/microchip/xc8/v1.36/include/pic18f4580.h"
RXB0D1 equ 0F67h ;# 
# 26910 "/opt/microchip/xc8/v1.36/include/pic18f4580.h"
RXB0D2 equ 0F68h ;# 
# 26971 "/opt/microchip/xc8/v1.36/include/pic18f4580.h"
RXB0D3 equ 0F69h ;# 
# 27032 "/opt/microchip/xc8/v1.36/include/pic18f4580.h"
RXB0D4 equ 0F6Ah ;# 
# 27093 "/opt/microchip/xc8/v1.36/include/pic18f4580.h"
RXB0D5 equ 0F6Bh ;# 
# 27154 "/opt/microchip/xc8/v1.36/include/pic18f4580.h"
RXB0D6 equ 0F6Ch ;# 
# 27215 "/opt/microchip/xc8/v1.36/include/pic18f4580.h"
RXB0D7 equ 0F6Dh ;# 
# 27276 "/opt/microchip/xc8/v1.36/include/pic18f4580.h"
CANSTAT equ 0F6Eh ;# 
# 27384 "/opt/microchip/xc8/v1.36/include/pic18f4580.h"
CANCON equ 0F6Fh ;# 
# 27487 "/opt/microchip/xc8/v1.36/include/pic18f4580.h"
BRGCON1 equ 0F70h ;# 
# 27548 "/opt/microchip/xc8/v1.36/include/pic18f4580.h"
BRGCON2 equ 0F71h ;# 
# 27618 "/opt/microchip/xc8/v1.36/include/pic18f4580.h"
BRGCON3 equ 0F72h ;# 
# 27662 "/opt/microchip/xc8/v1.36/include/pic18f4580.h"
CIOCON equ 0F73h ;# 
# 27688 "/opt/microchip/xc8/v1.36/include/pic18f4580.h"
COMSTAT equ 0F74h ;# 
# 27809 "/opt/microchip/xc8/v1.36/include/pic18f4580.h"
RXERRCNT equ 0F75h ;# 
# 27870 "/opt/microchip/xc8/v1.36/include/pic18f4580.h"
TXERRCNT equ 0F76h ;# 
# 27931 "/opt/microchip/xc8/v1.36/include/pic18f4580.h"
ECANCON equ 0F77h ;# 
# 28001 "/opt/microchip/xc8/v1.36/include/pic18f4580.h"
PORTA equ 0F80h ;# 
# 28211 "/opt/microchip/xc8/v1.36/include/pic18f4580.h"
PORTB equ 0F81h ;# 
# 28384 "/opt/microchip/xc8/v1.36/include/pic18f4580.h"
PORTC equ 0F82h ;# 
# 28556 "/opt/microchip/xc8/v1.36/include/pic18f4580.h"
PORTD equ 0F83h ;# 
# 28735 "/opt/microchip/xc8/v1.36/include/pic18f4580.h"
PORTE equ 0F84h ;# 
# 28851 "/opt/microchip/xc8/v1.36/include/pic18f4580.h"
LATA equ 0F89h ;# 
# 28983 "/opt/microchip/xc8/v1.36/include/pic18f4580.h"
LATB equ 0F8Ah ;# 
# 29115 "/opt/microchip/xc8/v1.36/include/pic18f4580.h"
LATC equ 0F8Bh ;# 
# 29247 "/opt/microchip/xc8/v1.36/include/pic18f4580.h"
LATD equ 0F8Ch ;# 
# 29379 "/opt/microchip/xc8/v1.36/include/pic18f4580.h"
LATE equ 0F8Dh ;# 
# 29436 "/opt/microchip/xc8/v1.36/include/pic18f4580.h"
TRISA equ 0F92h ;# 
# 29441 "/opt/microchip/xc8/v1.36/include/pic18f4580.h"
DDRA equ 0F92h ;# 
# 29657 "/opt/microchip/xc8/v1.36/include/pic18f4580.h"
TRISB equ 0F93h ;# 
# 29662 "/opt/microchip/xc8/v1.36/include/pic18f4580.h"
DDRB equ 0F93h ;# 
# 29878 "/opt/microchip/xc8/v1.36/include/pic18f4580.h"
TRISC equ 0F94h ;# 
# 29883 "/opt/microchip/xc8/v1.36/include/pic18f4580.h"
DDRC equ 0F94h ;# 
# 30099 "/opt/microchip/xc8/v1.36/include/pic18f4580.h"
TRISD equ 0F95h ;# 
# 30104 "/opt/microchip/xc8/v1.36/include/pic18f4580.h"
DDRD equ 0F95h ;# 
# 30320 "/opt/microchip/xc8/v1.36/include/pic18f4580.h"
TRISE equ 0F96h ;# 
# 30325 "/opt/microchip/xc8/v1.36/include/pic18f4580.h"
DDRE equ 0F96h ;# 
# 30471 "/opt/microchip/xc8/v1.36/include/pic18f4580.h"
OSCTUNE equ 0F9Bh ;# 
# 30542 "/opt/microchip/xc8/v1.36/include/pic18f4580.h"
PIE1 equ 0F9Dh ;# 
# 30621 "/opt/microchip/xc8/v1.36/include/pic18f4580.h"
PIR1 equ 0F9Eh ;# 
# 30700 "/opt/microchip/xc8/v1.36/include/pic18f4580.h"
IPR1 equ 0F9Fh ;# 
# 30788 "/opt/microchip/xc8/v1.36/include/pic18f4580.h"
PIE2 equ 0FA0h ;# 
# 30853 "/opt/microchip/xc8/v1.36/include/pic18f4580.h"
PIR2 equ 0FA1h ;# 
# 30918 "/opt/microchip/xc8/v1.36/include/pic18f4580.h"
IPR2 equ 0FA2h ;# 
# 30983 "/opt/microchip/xc8/v1.36/include/pic18f4580.h"
PIE3 equ 0FA3h ;# 
# 31091 "/opt/microchip/xc8/v1.36/include/pic18f4580.h"
PIR3 equ 0FA4h ;# 
# 31191 "/opt/microchip/xc8/v1.36/include/pic18f4580.h"
IPR3 equ 0FA5h ;# 
# 31291 "/opt/microchip/xc8/v1.36/include/pic18f4580.h"
EECON1 equ 0FA6h ;# 
# 31356 "/opt/microchip/xc8/v1.36/include/pic18f4580.h"
EECON2 equ 0FA7h ;# 
# 31362 "/opt/microchip/xc8/v1.36/include/pic18f4580.h"
EEDATA equ 0FA8h ;# 
# 31368 "/opt/microchip/xc8/v1.36/include/pic18f4580.h"
EEADR equ 0FA9h ;# 
# 31374 "/opt/microchip/xc8/v1.36/include/pic18f4580.h"
RCSTA equ 0FABh ;# 
# 31379 "/opt/microchip/xc8/v1.36/include/pic18f4580.h"
RCSTA1 equ 0FABh ;# 
# 31583 "/opt/microchip/xc8/v1.36/include/pic18f4580.h"
TXSTA equ 0FACh ;# 
# 31588 "/opt/microchip/xc8/v1.36/include/pic18f4580.h"
TXSTA1 equ 0FACh ;# 
# 31880 "/opt/microchip/xc8/v1.36/include/pic18f4580.h"
TXREG equ 0FADh ;# 
# 31885 "/opt/microchip/xc8/v1.36/include/pic18f4580.h"
TXREG1 equ 0FADh ;# 
# 31891 "/opt/microchip/xc8/v1.36/include/pic18f4580.h"
RCREG equ 0FAEh ;# 
# 31896 "/opt/microchip/xc8/v1.36/include/pic18f4580.h"
RCREG1 equ 0FAEh ;# 
# 31902 "/opt/microchip/xc8/v1.36/include/pic18f4580.h"
SPBRG equ 0FAFh ;# 
# 31907 "/opt/microchip/xc8/v1.36/include/pic18f4580.h"
SPBRG1 equ 0FAFh ;# 
# 31913 "/opt/microchip/xc8/v1.36/include/pic18f4580.h"
SPBRGH equ 0FB0h ;# 
# 31919 "/opt/microchip/xc8/v1.36/include/pic18f4580.h"
T3CON equ 0FB1h ;# 
# 32047 "/opt/microchip/xc8/v1.36/include/pic18f4580.h"
TMR3 equ 0FB2h ;# 
# 32053 "/opt/microchip/xc8/v1.36/include/pic18f4580.h"
TMR3L equ 0FB2h ;# 
# 32059 "/opt/microchip/xc8/v1.36/include/pic18f4580.h"
TMR3H equ 0FB3h ;# 
# 32065 "/opt/microchip/xc8/v1.36/include/pic18f4580.h"
CMCON equ 0FB4h ;# 
# 32160 "/opt/microchip/xc8/v1.36/include/pic18f4580.h"
CVRCON equ 0FB5h ;# 
# 32244 "/opt/microchip/xc8/v1.36/include/pic18f4580.h"
ECCP1AS equ 0FB6h ;# 
# 32325 "/opt/microchip/xc8/v1.36/include/pic18f4580.h"
ECCP1DEL equ 0FB7h ;# 
# 32394 "/opt/microchip/xc8/v1.36/include/pic18f4580.h"
BAUDCON equ 0FB8h ;# 
# 32399 "/opt/microchip/xc8/v1.36/include/pic18f4580.h"
BAUDCTL equ 0FB8h ;# 
# 32559 "/opt/microchip/xc8/v1.36/include/pic18f4580.h"
ECCP1CON equ 0FBAh ;# 
# 32640 "/opt/microchip/xc8/v1.36/include/pic18f4580.h"
ECCPR1 equ 0FBBh ;# 
# 32646 "/opt/microchip/xc8/v1.36/include/pic18f4580.h"
ECCPR1L equ 0FBBh ;# 
# 32652 "/opt/microchip/xc8/v1.36/include/pic18f4580.h"
ECCPR1H equ 0FBCh ;# 
# 32658 "/opt/microchip/xc8/v1.36/include/pic18f4580.h"
CCP1CON equ 0FBDh ;# 
# 32721 "/opt/microchip/xc8/v1.36/include/pic18f4580.h"
CCPR1 equ 0FBEh ;# 
# 32727 "/opt/microchip/xc8/v1.36/include/pic18f4580.h"
CCPR1L equ 0FBEh ;# 
# 32733 "/opt/microchip/xc8/v1.36/include/pic18f4580.h"
CCPR1H equ 0FBFh ;# 
# 32739 "/opt/microchip/xc8/v1.36/include/pic18f4580.h"
ADCON2 equ 0FC0h ;# 
# 32809 "/opt/microchip/xc8/v1.36/include/pic18f4580.h"
ADCON1 equ 0FC1h ;# 
# 32899 "/opt/microchip/xc8/v1.36/include/pic18f4580.h"
ADCON0 equ 0FC2h ;# 
# 33017 "/opt/microchip/xc8/v1.36/include/pic18f4580.h"
ADRES equ 0FC3h ;# 
# 33023 "/opt/microchip/xc8/v1.36/include/pic18f4580.h"
ADRESL equ 0FC3h ;# 
# 33029 "/opt/microchip/xc8/v1.36/include/pic18f4580.h"
ADRESH equ 0FC4h ;# 
# 33035 "/opt/microchip/xc8/v1.36/include/pic18f4580.h"
SSPCON2 equ 0FC5h ;# 
# 33096 "/opt/microchip/xc8/v1.36/include/pic18f4580.h"
SSPCON1 equ 0FC6h ;# 
# 33165 "/opt/microchip/xc8/v1.36/include/pic18f4580.h"
SSPSTAT equ 0FC7h ;# 
# 33423 "/opt/microchip/xc8/v1.36/include/pic18f4580.h"
SSPADD equ 0FC8h ;# 
# 33429 "/opt/microchip/xc8/v1.36/include/pic18f4580.h"
SSPBUF equ 0FC9h ;# 
# 33435 "/opt/microchip/xc8/v1.36/include/pic18f4580.h"
T2CON equ 0FCAh ;# 
# 33505 "/opt/microchip/xc8/v1.36/include/pic18f4580.h"
PR2 equ 0FCBh ;# 
# 33510 "/opt/microchip/xc8/v1.36/include/pic18f4580.h"
MEMCON equ 0FCBh ;# 
# 33614 "/opt/microchip/xc8/v1.36/include/pic18f4580.h"
TMR2 equ 0FCCh ;# 
# 33620 "/opt/microchip/xc8/v1.36/include/pic18f4580.h"
T1CON equ 0FCDh ;# 
# 33733 "/opt/microchip/xc8/v1.36/include/pic18f4580.h"
TMR1 equ 0FCEh ;# 
# 33739 "/opt/microchip/xc8/v1.36/include/pic18f4580.h"
TMR1L equ 0FCEh ;# 
# 33745 "/opt/microchip/xc8/v1.36/include/pic18f4580.h"
TMR1H equ 0FCFh ;# 
# 33751 "/opt/microchip/xc8/v1.36/include/pic18f4580.h"
RCON equ 0FD0h ;# 
# 33883 "/opt/microchip/xc8/v1.36/include/pic18f4580.h"
WDTCON equ 0FD1h ;# 
# 33910 "/opt/microchip/xc8/v1.36/include/pic18f4580.h"
HLVDCON equ 0FD2h ;# 
# 33915 "/opt/microchip/xc8/v1.36/include/pic18f4580.h"
LVDCON equ 0FD2h ;# 
# 34179 "/opt/microchip/xc8/v1.36/include/pic18f4580.h"
OSCCON equ 0FD3h ;# 
# 34255 "/opt/microchip/xc8/v1.36/include/pic18f4580.h"
T0CON equ 0FD5h ;# 
# 34330 "/opt/microchip/xc8/v1.36/include/pic18f4580.h"
TMR0 equ 0FD6h ;# 
# 34336 "/opt/microchip/xc8/v1.36/include/pic18f4580.h"
TMR0L equ 0FD6h ;# 
# 34342 "/opt/microchip/xc8/v1.36/include/pic18f4580.h"
TMR0H equ 0FD7h ;# 
# 34348 "/opt/microchip/xc8/v1.36/include/pic18f4580.h"
STATUS equ 0FD8h ;# 
# 34426 "/opt/microchip/xc8/v1.36/include/pic18f4580.h"
FSR2 equ 0FD9h ;# 
# 34432 "/opt/microchip/xc8/v1.36/include/pic18f4580.h"
FSR2L equ 0FD9h ;# 
# 34438 "/opt/microchip/xc8/v1.36/include/pic18f4580.h"
FSR2H equ 0FDAh ;# 
# 34444 "/opt/microchip/xc8/v1.36/include/pic18f4580.h"
PLUSW2 equ 0FDBh ;# 
# 34450 "/opt/microchip/xc8/v1.36/include/pic18f4580.h"
PREINC2 equ 0FDCh ;# 
# 34456 "/opt/microchip/xc8/v1.36/include/pic18f4580.h"
POSTDEC2 equ 0FDDh ;# 
# 34462 "/opt/microchip/xc8/v1.36/include/pic18f4580.h"
POSTINC2 equ 0FDEh ;# 
# 34468 "/opt/microchip/xc8/v1.36/include/pic18f4580.h"
INDF2 equ 0FDFh ;# 
# 34474 "/opt/microchip/xc8/v1.36/include/pic18f4580.h"
BSR equ 0FE0h ;# 
# 34480 "/opt/microchip/xc8/v1.36/include/pic18f4580.h"
FSR1 equ 0FE1h ;# 
# 34486 "/opt/microchip/xc8/v1.36/include/pic18f4580.h"
FSR1L equ 0FE1h ;# 
# 34492 "/opt/microchip/xc8/v1.36/include/pic18f4580.h"
FSR1H equ 0FE2h ;# 
# 34498 "/opt/microchip/xc8/v1.36/include/pic18f4580.h"
PLUSW1 equ 0FE3h ;# 
# 34504 "/opt/microchip/xc8/v1.36/include/pic18f4580.h"
PREINC1 equ 0FE4h ;# 
# 34510 "/opt/microchip/xc8/v1.36/include/pic18f4580.h"
POSTDEC1 equ 0FE5h ;# 
# 34516 "/opt/microchip/xc8/v1.36/include/pic18f4580.h"
POSTINC1 equ 0FE6h ;# 
# 34522 "/opt/microchip/xc8/v1.36/include/pic18f4580.h"
INDF1 equ 0FE7h ;# 
# 34528 "/opt/microchip/xc8/v1.36/include/pic18f4580.h"
WREG equ 0FE8h ;# 
# 34534 "/opt/microchip/xc8/v1.36/include/pic18f4580.h"
FSR0 equ 0FE9h ;# 
# 34540 "/opt/microchip/xc8/v1.36/include/pic18f4580.h"
FSR0L equ 0FE9h ;# 
# 34546 "/opt/microchip/xc8/v1.36/include/pic18f4580.h"
FSR0H equ 0FEAh ;# 
# 34552 "/opt/microchip/xc8/v1.36/include/pic18f4580.h"
PLUSW0 equ 0FEBh ;# 
# 34558 "/opt/microchip/xc8/v1.36/include/pic18f4580.h"
PREINC0 equ 0FECh ;# 
# 34564 "/opt/microchip/xc8/v1.36/include/pic18f4580.h"
POSTDEC0 equ 0FEDh ;# 
# 34570 "/opt/microchip/xc8/v1.36/include/pic18f4580.h"
POSTINC0 equ 0FEEh ;# 
# 34576 "/opt/microchip/xc8/v1.36/include/pic18f4580.h"
INDF0 equ 0FEFh ;# 
# 34582 "/opt/microchip/xc8/v1.36/include/pic18f4580.h"
INTCON3 equ 0FF0h ;# 
# 34673 "/opt/microchip/xc8/v1.36/include/pic18f4580.h"
INTCON2 equ 0FF1h ;# 
# 34749 "/opt/microchip/xc8/v1.36/include/pic18f4580.h"
INTCON equ 0FF2h ;# 
# 34865 "/opt/microchip/xc8/v1.36/include/pic18f4580.h"
PROD equ 0FF3h ;# 
# 34871 "/opt/microchip/xc8/v1.36/include/pic18f4580.h"
PRODL equ 0FF3h ;# 
# 34877 "/opt/microchip/xc8/v1.36/include/pic18f4580.h"
PRODH equ 0FF4h ;# 
# 34883 "/opt/microchip/xc8/v1.36/include/pic18f4580.h"
TABLAT equ 0FF5h ;# 
# 34891 "/opt/microchip/xc8/v1.36/include/pic18f4580.h"
TBLPTR equ 0FF6h ;# 
# 34897 "/opt/microchip/xc8/v1.36/include/pic18f4580.h"
TBLPTRL equ 0FF6h ;# 
# 34903 "/opt/microchip/xc8/v1.36/include/pic18f4580.h"
TBLPTRH equ 0FF7h ;# 
# 34909 "/opt/microchip/xc8/v1.36/include/pic18f4580.h"
TBLPTRU equ 0FF8h ;# 
# 34917 "/opt/microchip/xc8/v1.36/include/pic18f4580.h"
PCLAT equ 0FF9h ;# 
# 34924 "/opt/microchip/xc8/v1.36/include/pic18f4580.h"
PC equ 0FF9h ;# 
# 34930 "/opt/microchip/xc8/v1.36/include/pic18f4580.h"
PCL equ 0FF9h ;# 
# 34936 "/opt/microchip/xc8/v1.36/include/pic18f4580.h"
PCLATH equ 0FFAh ;# 
# 34942 "/opt/microchip/xc8/v1.36/include/pic18f4580.h"
PCLATU equ 0FFBh ;# 
# 34948 "/opt/microchip/xc8/v1.36/include/pic18f4580.h"
STKPTR equ 0FFCh ;# 
# 35021 "/opt/microchip/xc8/v1.36/include/pic18f4580.h"
TOS equ 0FFDh ;# 
# 35027 "/opt/microchip/xc8/v1.36/include/pic18f4580.h"
TOSL equ 0FFDh ;# 
# 35033 "/opt/microchip/xc8/v1.36/include/pic18f4580.h"
TOSH equ 0FFEh ;# 
# 35039 "/opt/microchip/xc8/v1.36/include/pic18f4580.h"
TOSU equ 0FFFh ;# 
	FNCALL	_main,_init_config
	FNCALL	_init_config,_init_timer0
	FNROOT	_main
	FNCALL	_isr,___awdiv
	FNCALL	_isr,___awmod
	FNCALL	intlevel2,_isr
	global	intlevel2
	FNROOT	intlevel2
	global	isr@F15926
psect	idataCOMRAM,class=CODE,space=0,delta=1,noexec
global __pidataCOMRAM
__pidataCOMRAM:
	file	"main.c"
	line	47

;initializer for isr@F15926
	db	low(0E7h)
	db	low(021h)
	db	low(0CBh)
	db	low(06Bh)
	db	low(02Dh)
	db	low(06Eh)
	db	low(0EEh)
	db	low(023h)
	db	low(0EFh)
	db	low(06Fh)
	global	isr@count
	global	isr@number
	global	_TMR0
_TMR0	set	0xFD6
	global	_PORTA
_PORTA	set	0xF80
	global	_PORTD
_PORTD	set	0xF83
	global	_TRISA
_TRISA	set	0xF92
	global	_TRISD
_TRISD	set	0xF95
	global	_GIE
_GIE	set	0x7F97
	global	_PEIE
_PEIE	set	0x7F96
	global	_PSA
_PSA	set	0x7EAB
	global	_T08BIT
_T08BIT	set	0x7EAE
	global	_T0CS
_T0CS	set	0x7EAD
	global	_TMR0IE
_TMR0IE	set	0x7F95
	global	_TMR0IF
_TMR0IF	set	0x7F92
	global	_TMR0ON
_TMR0ON	set	0x7EAF
; #config settings
	file	"pic18F4580.as"
	line	#
psect	cinit,class=CODE,delta=1,reloc=2
global __pcinit
__pcinit:
global start_initialization
start_initialization:

global __initialization
__initialization:
psect	bssCOMRAM,class=COMRAM,space=1,noexec
global __pbssCOMRAM
__pbssCOMRAM:
isr@count:
       ds      2
isr@number:
       ds      2
psect	dataCOMRAM,class=COMRAM,space=1,noexec
global __pdataCOMRAM
__pdataCOMRAM:
	file	"main.c"
	line	47
isr@F15926:
       ds      10
	file	"pic18F4580.as"
	line	#
psect	cinit
; Clear objects allocated to COMRAM (4 bytes)
	global __pbssCOMRAM
clrf	(__pbssCOMRAM+3)&0xffh,c
clrf	(__pbssCOMRAM+2)&0xffh,c
clrf	(__pbssCOMRAM+1)&0xffh,c
clrf	(__pbssCOMRAM+0)&0xffh,c
	line	#
; Initialize objects allocated to COMRAM (10 bytes)
	global __pidataCOMRAM
	; load TBLPTR registers with __pidataCOMRAM
	movlw	low (__pidataCOMRAM)
	movwf	tblptrl
	movlw	high(__pidataCOMRAM)
	movwf	tblptrh
	movlw	low highword(__pidataCOMRAM)
	movwf	tblptru
	lfsr	0,__pdataCOMRAM
	lfsr	1,10
	copy_data0:
	tblrd	*+
	movff	tablat, postinc0
	movf	postdec1,w
	movf	fsr1l,w
	bnz	copy_data0
psect cinit,class=CODE,delta=1
global end_of_initialization,__end_of__initialization

;End of C runtime variable initialization code

end_of_initialization:
__end_of__initialization:
	bcf int$flags,0,c ;clear compiler interrupt flag (level 1)
	bcf int$flags,1,c ;clear compiler interrupt flag (level 2)
movlb 0
goto _main	;jump to C main() function
psect	cstackBANK0,class=BANK0,space=1,noexec
global __pcstackBANK0
__pcstackBANK0:
??_init_config:	; 1 bytes @ 0x0
??_init_timer0:	; 1 bytes @ 0x0
??_main:	; 1 bytes @ 0x0
psect	cstackCOMRAM,class=COMRAM,space=1,noexec
global __pcstackCOMRAM
__pcstackCOMRAM:
?_init_config:	; 1 bytes @ 0x0
?_init_timer0:	; 1 bytes @ 0x0
?_main:	; 1 bytes @ 0x0
?_isr:	; 1 bytes @ 0x0
	global	?___awdiv
?___awdiv:	; 2 bytes @ 0x0
	global	___awdiv@dividend
___awdiv@dividend:	; 2 bytes @ 0x0
	ds   2
	global	___awdiv@divisor
___awdiv@divisor:	; 2 bytes @ 0x2
	ds   2
??___awdiv:	; 1 bytes @ 0x4
	global	___awdiv@counter
___awdiv@counter:	; 1 bytes @ 0x4
	ds   1
	global	___awdiv@sign
___awdiv@sign:	; 1 bytes @ 0x5
	ds   1
	global	___awdiv@quotient
___awdiv@quotient:	; 2 bytes @ 0x6
	ds   2
	global	?___awmod
?___awmod:	; 2 bytes @ 0x8
	global	___awmod@dividend
___awmod@dividend:	; 2 bytes @ 0x8
	ds   2
	global	___awmod@divisor
___awmod@divisor:	; 2 bytes @ 0xA
	ds   2
??___awmod:	; 1 bytes @ 0xC
	global	___awmod@counter
___awmod@counter:	; 1 bytes @ 0xC
	ds   1
	global	___awmod@sign
___awmod@sign:	; 1 bytes @ 0xD
	ds   1
??_isr:	; 1 bytes @ 0xE
	ds   16
	global	isr@data
isr@data:	; 10 bytes @ 0x1E
	ds   10
	global	isr@ssd
isr@ssd:	; 4 bytes @ 0x28
	ds   4
	global	isr@j
isr@j:	; 2 bytes @ 0x2C
	ds   2
	global	isr@i
isr@i:	; 2 bytes @ 0x2E
	ds   2
;!
;!Data Sizes:
;!    Strings     0
;!    Constant    0
;!    Data        10
;!    BSS         4
;!    Persistent  0
;!    Stack       0
;!
;!Auto Spaces:
;!    Space          Size  Autos    Used
;!    COMRAM           94     48      62
;!    BANK0           160      0       0
;!    BANK1           256      0       0
;!    BANK2           256      0       0
;!    BANK3           256      0       0
;!    BANK4           256      0       0
;!    BANK5           256      0       0

;!
;!Pointer List with Targets:
;!
;!    None.


;!
;!Critical Paths under _main in COMRAM
;!
;!    None.
;!
;!Critical Paths under _isr in COMRAM
;!
;!    _isr->___awmod
;!    ___awmod->___awdiv
;!
;!Critical Paths under _main in BANK0
;!
;!    None.
;!
;!Critical Paths under _isr in BANK0
;!
;!    None.
;!
;!Critical Paths under _main in BANK1
;!
;!    None.
;!
;!Critical Paths under _isr in BANK1
;!
;!    None.
;!
;!Critical Paths under _main in BANK2
;!
;!    None.
;!
;!Critical Paths under _isr in BANK2
;!
;!    None.
;!
;!Critical Paths under _main in BANK3
;!
;!    None.
;!
;!Critical Paths under _isr in BANK3
;!
;!    None.
;!
;!Critical Paths under _main in BANK4
;!
;!    None.
;!
;!Critical Paths under _isr in BANK4
;!
;!    None.
;!
;!Critical Paths under _main in BANK5
;!
;!    None.
;!
;!Critical Paths under _isr in BANK5
;!
;!    None.

;;
;;Main: autosize = 0, tempsize = 0, incstack = 0, save=0
;;

;!
;!Call Graph Tables:
;!
;! ---------------------------------------------------------------------------------
;! (Depth) Function   	        Calls       Base Space   Used Autos Params    Refs
;! ---------------------------------------------------------------------------------
;! (0) _main                                                 0     0      0       0
;!                        _init_config
;! ---------------------------------------------------------------------------------
;! (1) _init_config                                          0     0      0       0
;!                        _init_timer0
;! ---------------------------------------------------------------------------------
;! (2) _init_timer0                                          0     0      0       0
;! ---------------------------------------------------------------------------------
;! Estimated maximum stack depth 2
;! ---------------------------------------------------------------------------------
;! (Depth) Function   	        Calls       Base Space   Used Autos Params    Refs
;! ---------------------------------------------------------------------------------
;! (3) _isr                                                 34    34      0    1437
;!                                             14 COMRAM    34    34      0
;!                            ___awdiv
;!                            ___awmod
;! ---------------------------------------------------------------------------------
;! (4) ___awmod                                              6     2      4     554
;!                                              8 COMRAM     6     2      4
;!                            ___awdiv (ARG)
;! ---------------------------------------------------------------------------------
;! (4) ___awdiv                                              8     4      4     558
;!                                              0 COMRAM     8     4      4
;! ---------------------------------------------------------------------------------
;! Estimated maximum stack depth 4
;! ---------------------------------------------------------------------------------
;!
;! Call Graph Graphs:
;!
;! _main (ROOT)
;!   _init_config
;!     _init_timer0
;!
;! _isr (ROOT)
;!   ___awdiv
;!   ___awmod
;!     ___awdiv (ARG)
;!

;! Address spaces:

;!Name               Size   Autos  Total    Cost      Usage
;!BIGRAM             5FF      0       0      16        0.0%
;!EEDATA             100      0       0       0        0.0%
;!BITBANK5           100      0       0      14        0.0%
;!BANK5              100      0       0      15        0.0%
;!BITBANK4           100      0       0      12        0.0%
;!BANK4              100      0       0      13        0.0%
;!BITBANK3           100      0       0      10        0.0%
;!BANK3              100      0       0      11        0.0%
;!BITBANK2           100      0       0       8        0.0%
;!BANK2              100      0       0       9        0.0%
;!BITBANK1           100      0       0       6        0.0%
;!BANK1              100      0       0       7        0.0%
;!BITBANK0            A0      0       0       4        0.0%
;!BANK0               A0      0       0       5        0.0%
;!BITCOMRAM           5E      0       0       0        0.0%
;!COMRAM              5E     30      3E       1       66.0%
;!BITSFR_3             0      0       0      40        0.0%
;!SFR_3                0      0       0      40        0.0%
;!BITSFR_2             0      0       0      40        0.0%
;!SFR_2                0      0       0      40        0.0%
;!BITSFR_1             0      0       0      40        0.0%
;!SFR_1                0      0       0      40        0.0%
;!BITSFR               0      0       0      40        0.0%
;!SFR                  0      0       0      40        0.0%
;!STACK                0      0       0       2        0.0%
;!NULL                 0      0       0       0        0.0%
;!ABS                  0      0      3E       3        0.0%
;!DATA                 0      0      3E      17        0.0%
;!CODE                 0      0       0       0        0.0%

	global	_main

;; *************** function _main *****************
;; Defined at:
;;		line 11 in file "main.c"
;; Parameters:    Size  Location     Type
;;		None
;; Auto vars:     Size  Location     Type
;;		None
;; Return value:  Size  Location     Type
;;                  1    wreg      void 
;; Registers used:
;;		wreg, status,2, status,0, cstack
;; Tracked objects:
;;		On entry : 0/0
;;		On exit  : 0/0
;;		Unchanged: 0/0
;; Data sizes:     COMRAM   BANK0   BANK1   BANK2   BANK3   BANK4   BANK5
;;      Params:         0       0       0       0       0       0       0
;;      Locals:         0       0       0       0       0       0       0
;;      Temps:          0       0       0       0       0       0       0
;;      Totals:         0       0       0       0       0       0       0
;;Total ram usage:        0 bytes
;; Hardware stack levels required when called:    4
;; This function calls:
;;		_init_config
;; This function is called by:
;;		Startup code after reset
;; This function uses a non-reentrant model
;;
psect	text0,class=CODE,space=0,reloc=2
	file	"main.c"
	line	11
global __ptext0
__ptext0:
psect	text0
	file	"main.c"
	line	11
	global	__size_of_main
	__size_of_main	equ	__end_of_main-_main
	
_main:
;incstack = 0
	opt	stack 27
	line	13
	
l883:
;main.c: 13: init_config();
	call	_init_config	;wreg free
	line	15
;main.c: 15: while(1)
	
l33:
	line	20
;main.c: 16: {
	
l34:
	line	15
	goto	l33
	
l35:
	line	23
	
l36:
	global	start
	goto	start
	opt stack 0
GLOBAL	__end_of_main
	__end_of_main:
	signat	_main,89
	global	_init_config

;; *************** function _init_config *****************
;; Defined at:
;;		line 25 in file "main.c"
;; Parameters:    Size  Location     Type
;;		None
;; Auto vars:     Size  Location     Type
;;		None
;; Return value:  Size  Location     Type
;;                  1    wreg      void 
;; Registers used:
;;		wreg, status,2, status,0, cstack
;; Tracked objects:
;;		On entry : 0/0
;;		On exit  : 0/0
;;		Unchanged: 0/0
;; Data sizes:     COMRAM   BANK0   BANK1   BANK2   BANK3   BANK4   BANK5
;;      Params:         0       0       0       0       0       0       0
;;      Locals:         0       0       0       0       0       0       0
;;      Temps:          0       0       0       0       0       0       0
;;      Totals:         0       0       0       0       0       0       0
;;Total ram usage:        0 bytes
;; Hardware stack levels used:    1
;; Hardware stack levels required when called:    3
;; This function calls:
;;		_init_timer0
;; This function is called by:
;;		_main
;; This function uses a non-reentrant model
;;
psect	text1,class=CODE,space=0,reloc=2
	line	25
global __ptext1
__ptext1:
psect	text1
	file	"main.c"
	line	25
	global	__size_of_init_config
	__size_of_init_config	equ	__end_of_init_config-_init_config
	
_init_config:
;incstack = 0
	opt	stack 27
	line	27
	
l795:
;main.c: 27: TRISD=0X00;
	movlw	low(0)
	movwf	((c:3989)),c	;volatile
	line	28
	
l797:
;main.c: 28: TRISA=TRISA & 0XF0;
	movf	((c:3986)),c,w	;volatile
	andlw	low(0F0h)
	movwf	((c:3986)),c	;volatile
	line	29
	
l799:
;main.c: 29: PORTA=PORTA & 0XF0;
	movf	((c:3968)),c,w	;volatile
	andlw	low(0F0h)
	movwf	((c:3968)),c	;volatile
	line	30
	
l801:
;main.c: 30: init_timer0();
	call	_init_timer0	;wreg free
	line	32
	
l39:
	return	;funcret
	opt stack 0
GLOBAL	__end_of_init_config
	__end_of_init_config:
	signat	_init_config,89
	global	_init_timer0

;; *************** function _init_timer0 *****************
;; Defined at:
;;		line 33 in file "main.c"
;; Parameters:    Size  Location     Type
;;		None
;; Auto vars:     Size  Location     Type
;;		None
;; Return value:  Size  Location     Type
;;                  1    wreg      void 
;; Registers used:
;;		wreg, status,2
;; Tracked objects:
;;		On entry : 0/0
;;		On exit  : 0/0
;;		Unchanged: 0/0
;; Data sizes:     COMRAM   BANK0   BANK1   BANK2   BANK3   BANK4   BANK5
;;      Params:         0       0       0       0       0       0       0
;;      Locals:         0       0       0       0       0       0       0
;;      Temps:          0       0       0       0       0       0       0
;;      Totals:         0       0       0       0       0       0       0
;;Total ram usage:        0 bytes
;; Hardware stack levels used:    1
;; Hardware stack levels required when called:    2
;; This function calls:
;;		Nothing
;; This function is called by:
;;		_init_config
;; This function uses a non-reentrant model
;;
psect	text2,class=CODE,space=0,reloc=2
	line	33
global __ptext2
__ptext2:
psect	text2
	file	"main.c"
	line	33
	global	__size_of_init_timer0
	__size_of_init_timer0	equ	__end_of_init_timer0-_init_timer0
	
_init_timer0:
;incstack = 0
	opt	stack 27
	line	35
	
l791:
;main.c: 35: GIE=1;
	bsf	c:(32663/8),(32663)&7	;volatile
	line	36
;main.c: 36: PEIE=1;
	bsf	c:(32662/8),(32662)&7	;volatile
	line	37
;main.c: 37: TMR0IE=1;
	bsf	c:(32661/8),(32661)&7	;volatile
	line	38
;main.c: 38: TMR0IF=0;
	bcf	c:(32658/8),(32658)&7	;volatile
	line	39
;main.c: 39: TMR0ON=1;
	bsf	c:(32431/8),(32431)&7	;volatile
	line	40
;main.c: 40: T08BIT=1;
	bsf	c:(32430/8),(32430)&7	;volatile
	line	41
;main.c: 41: T0CS=0;
	bcf	c:(32429/8),(32429)&7	;volatile
	line	42
;main.c: 42: PSA=1;
	bsf	c:(32427/8),(32427)&7	;volatile
	line	43
	
l793:
;main.c: 43: TMR0=6;
	movlw	high(06h)
	movwf	((c:4054+1)),c	;volatile
	movlw	low(06h)
	movwf	((c:4054)),c	;volatile
	line	44
	
l42:
	return	;funcret
	opt stack 0
GLOBAL	__end_of_init_timer0
	__end_of_init_timer0:
	signat	_init_timer0,89
	global	_isr

;; *************** function _isr *****************
;; Defined at:
;;		line 45 in file "main.c"
;; Parameters:    Size  Location     Type
;;		None
;; Auto vars:     Size  Location     Type
;;  j               2   44[COMRAM] unsigned int 
;;  i               2   46[COMRAM] int 
;;  data           10   30[COMRAM] unsigned char [10]
;;  ssd             4   40[COMRAM] unsigned char [4]
;; Return value:  Size  Location     Type
;;                  1    wreg      void 
;; Registers used:
;;		wreg, fsr1l, fsr1h, fsr2l, fsr2h, status,2, status,0, cstack
;; Tracked objects:
;;		On entry : 0/0
;;		On exit  : 0/0
;;		Unchanged: 0/0
;; Data sizes:     COMRAM   BANK0   BANK1   BANK2   BANK3   BANK4   BANK5
;;      Params:         0       0       0       0       0       0       0
;;      Locals:        18       0       0       0       0       0       0
;;      Temps:         16       0       0       0       0       0       0
;;      Totals:        34       0       0       0       0       0       0
;;Total ram usage:       34 bytes
;; Hardware stack levels used:    1
;; Hardware stack levels required when called:    1
;; This function calls:
;;		___awdiv
;;		___awmod
;; This function is called by:
;;		Interrupt level 2
;; This function uses a non-reentrant model
;;
psect	intcode,class=CODE,space=0,reloc=2
global __pintcode
__pintcode:
psect	intcode
	file	"main.c"
	line	45
	global	__size_of_isr
	__size_of_isr	equ	__end_of_isr-_isr
	
_isr:
;incstack = 0
	opt	stack 27
	bsf int$flags,1,c ;set compiler interrupt flag (level 2)
	movff	pclat+0,??_isr+2
	movff	pclat+1,??_isr+3
	global	int_func
	call	int_func,f	;refresh shadow registers
psect	intcode_body,class=CODE,space=0,reloc=2
global __pintcode_body
__pintcode_body:
int_func:

	pop	; remove dummy address from shadow register refresh
	movff	fsr0l+0,??_isr+4
	movff	fsr0h+0,??_isr+5
	movff	fsr1l+0,??_isr+6
	movff	fsr1h+0,??_isr+7
	movff	fsr2l+0,??_isr+8
	movff	fsr2h+0,??_isr+9
	movff	prodl+0,??_isr+10
	movff	prodh+0,??_isr+11
	movff	tblptrl+0,??_isr+12
	movff	tblptrh+0,??_isr+13
	movff	tblptru+0,??_isr+14
	movff	tablat+0,??_isr+15
	line	48
	
i2l885:
;main.c: 47: unsigned char ssd[4];
;main.c: 48: unsigned char data[]={0xe7,0x21,0xcb,0x6b,0x2d,0x6e,0xee,0x23,0xef,0x6f};
	lfsr	2,(isr@F15926)
	lfsr	1,(isr@data)
	movlw	10-1
i2u33_41:
	movff	plusw2,plusw1
	decf	wreg
	bc	i2u33_41

	line	53
	
i2l887:
;main.c: 51: static int count;
;main.c: 52: static int number;
;main.c: 53: if(TMR0IF)
	btfss	c:(32658/8),(32658)&7	;volatile
	goto	i2u34_41
	goto	i2u34_40
i2u34_41:
	goto	i2l57
i2u34_40:
	line	55
	
i2l889:
;main.c: 54: {
;main.c: 55: TMR0=TMR0 +8;
	movlw	low(08h)
	addwf	((c:4054)),c,w	;volatile
	movwf	((c:4054)),c	;volatile
	movlw	high(08h)
	addwfc	((c:4054+1)),c,w	;volatile
	movwf	1+((c:4054)),c	;volatile
	line	56
;main.c: 56: if(count++ == 20000)
	infsnz	((c:isr@count)),c
	incf	((c:isr@count+1)),c
		movlw	33
	xorwf	((c:isr@count)),c,w
	bnz	i2u35_41
	movlw	78
	xorwf	((c:isr@count+1)),c,w
	btfss	status,2
	goto	i2u35_41
	goto	i2u35_40

i2u35_41:
	goto	i2l52
i2u35_40:
	line	58
	
i2l891:
;main.c: 57: {
;main.c: 58: number++;
	infsnz	((c:isr@number)),c
	incf	((c:isr@number+1)),c
	line	59
	
i2l893:
;main.c: 59: count=0;
	movlw	high(0)
	movwf	((c:isr@count+1)),c
	movlw	low(0)
	movwf	((c:isr@count)),c
	line	60
	
i2l895:
;main.c: 60: ssd[3]=data[number % 10];
	movff	(c:isr@number),(c:___awmod@dividend)
	movff	(c:isr@number+1),(c:___awmod@dividend+1)
	movlw	high(0Ah)
	movwf	((c:___awmod@divisor+1)),c
	movlw	low(0Ah)
	movwf	((c:___awmod@divisor)),c
	call	___awmod	;wreg free
	movlw	low(isr@data)
	addwf	(0+?___awmod),c,w
	movwf	c:fsr2l
	movlw	high(isr@data)
	addwfc	(1+?___awmod),c,w
	movwf	1+c:fsr2l
	movf	indf2,w
	movwf	(0+((c:isr@ssd)+03h)),c
	line	61
	
i2l897:
;main.c: 61: ssd[2]=data[(number / 10)%10];
	movlw	high(0Ah)
	movwf	((c:___awdiv@divisor+1)),c
	movlw	low(0Ah)
	movwf	((c:___awdiv@divisor)),c
	movff	(c:isr@number),(c:___awdiv@dividend)
	movff	(c:isr@number+1),(c:___awdiv@dividend+1)
	call	___awdiv	;wreg free
	movff	0+?___awdiv,(c:___awmod@dividend)
	movff	1+?___awdiv,(c:___awmod@dividend+1)
	movlw	high(0Ah)
	movwf	((c:___awmod@divisor+1)),c
	movlw	low(0Ah)
	movwf	((c:___awmod@divisor)),c
	call	___awmod	;wreg free
	movlw	low(isr@data)
	addwf	(0+?___awmod),c,w
	movwf	c:fsr2l
	movlw	high(isr@data)
	addwfc	(1+?___awmod),c,w
	movwf	1+c:fsr2l
	movf	indf2,w
	movwf	(0+((c:isr@ssd)+02h)),c
	line	62
	
i2l899:
;main.c: 62: ssd[1]=data[(number /100)%10];
	movlw	high(064h)
	movwf	((c:___awdiv@divisor+1)),c
	movlw	low(064h)
	movwf	((c:___awdiv@divisor)),c
	movff	(c:isr@number),(c:___awdiv@dividend)
	movff	(c:isr@number+1),(c:___awdiv@dividend+1)
	call	___awdiv	;wreg free
	movff	0+?___awdiv,(c:___awmod@dividend)
	movff	1+?___awdiv,(c:___awmod@dividend+1)
	movlw	high(0Ah)
	movwf	((c:___awmod@divisor+1)),c
	movlw	low(0Ah)
	movwf	((c:___awmod@divisor)),c
	call	___awmod	;wreg free
	movlw	low(isr@data)
	addwf	(0+?___awmod),c,w
	movwf	c:fsr2l
	movlw	high(isr@data)
	addwfc	(1+?___awmod),c,w
	movwf	1+c:fsr2l
	movf	indf2,w
	movwf	(0+((c:isr@ssd)+01h)),c
	line	63
	
i2l901:
;main.c: 63: ssd[0]=data[(number/1000)];
	movff	(c:isr@number),(c:___awdiv@dividend)
	movff	(c:isr@number+1),(c:___awdiv@dividend+1)
	movlw	high(03E8h)
	movwf	((c:___awdiv@divisor+1)),c
	movlw	low(03E8h)
	movwf	((c:___awdiv@divisor)),c
	call	___awdiv	;wreg free
	movlw	low(isr@data)
	addwf	(0+?___awdiv),c,w
	movwf	c:fsr2l
	movlw	high(isr@data)
	addwfc	(1+?___awdiv),c,w
	movwf	1+c:fsr2l
	movf	indf2,w
	movwf	((c:isr@ssd)),c
	line	64
	
i2l903:
;main.c: 64: for(int i=0;i < 4;i++)
	movlw	high(0)
	movwf	((c:isr@i+1)),c
	movlw	low(0)
	movwf	((c:isr@i)),c
	
i2l905:
	btfsc	((c:isr@i+1)),c,7
	goto	i2u36_41
	movf	((c:isr@i+1)),c,w
	bnz	i2u36_40
	movlw	4
	subwf	 ((c:isr@i)),c,w
	btfss	status,0
	goto	i2u36_41
	goto	i2u36_40

i2u36_41:
	goto	i2l909
i2u36_40:
	goto	i2l52
	
i2l907:
	goto	i2l52
	line	65
	
i2l53:
	line	66
	
i2l909:
;main.c: 65: {
;main.c: 66: PORTD=ssd[i];
	movlw	low(isr@ssd)
	addwf	((c:isr@i)),c,w
	movwf	c:fsr2l
	movlw	high(isr@ssd)
	addwfc	((c:isr@i+1)),c,w
	movwf	1+c:fsr2l
	movf	indf2,w
	movwf	((c:3971)),c	;volatile
	line	67
	
i2l911:
;main.c: 67: PORTA=(PORTA & 0Xf0 ) | (1<<i);
	movff	(c:isr@i),??_isr+0+0
	movlw	(01h)&0ffh
	movwf	(??_isr+1+0)&0ffh,c
	incf	(??_isr+0+0),c
	goto	i2u37_44
i2u37_45:
	bcf	status,0
	rlcf	((??_isr+1+0)),c
i2u37_44:
	decfsz	(??_isr+0+0),c
	goto	i2u37_45
	movf	((c:3968)),c,w	;volatile
	andlw	low(0F0h)
	iorwf	((??_isr+1+0)),c,w
	movwf	((c:3968)),c	;volatile
	line	68
	
i2l913:
;main.c: 68: for(unsigned int j =0;j<1000;j++);
	movlw	high(0)
	movwf	((c:isr@j+1)),c
	movlw	low(0)
	movwf	((c:isr@j)),c
	
i2l915:
		movlw	232
	subwf	 ((c:isr@j)),c,w
	movlw	3
	subwfb	((c:isr@j+1)),c,w
	btfss	status,0
	goto	i2u38_41
	goto	i2u38_40

i2u38_41:
	goto	i2l919
i2u38_40:
	goto	i2l923
	
i2l917:
	goto	i2l923
	
i2l55:
	
i2l919:
	infsnz	((c:isr@j)),c
	incf	((c:isr@j+1)),c
	
i2l921:
		movlw	232
	subwf	 ((c:isr@j)),c,w
	movlw	3
	subwfb	((c:isr@j+1)),c,w
	btfss	status,0
	goto	i2u39_41
	goto	i2u39_40

i2u39_41:
	goto	i2l919
i2u39_40:
	goto	i2l923
	
i2l56:
	line	64
	
i2l923:
	infsnz	((c:isr@i)),c
	incf	((c:isr@i+1)),c
	
i2l925:
	btfsc	((c:isr@i+1)),c,7
	goto	i2u40_41
	movf	((c:isr@i+1)),c,w
	bnz	i2u40_40
	movlw	4
	subwf	 ((c:isr@i)),c,w
	btfss	status,0
	goto	i2u40_41
	goto	i2u40_40

i2u40_41:
	goto	i2l909
i2u40_40:
	goto	i2l52
	
i2l54:
	line	73
	
i2l52:
	line	74
;main.c: 69: }
;main.c: 73: }
;main.c: 74: TMR0IF=0;
	bcf	c:(32658/8),(32658)&7	;volatile
	goto	i2l57
	line	76
	
i2l51:
	line	77
	
i2l57:
	movff	??_isr+15,tablat+0
	movff	??_isr+14,tblptru+0
	movff	??_isr+13,tblptrh+0
	movff	??_isr+12,tblptrl+0
	movff	??_isr+11,prodh+0
	movff	??_isr+10,prodl+0
	movff	??_isr+9,fsr2h+0
	movff	??_isr+8,fsr2l+0
	movff	??_isr+7,fsr1h+0
	movff	??_isr+6,fsr1l+0
	movff	??_isr+5,fsr0h+0
	movff	??_isr+4,fsr0l+0
	movff	??_isr+3,pclat+1
	movff	??_isr+2,pclat+0
	bcf int$flags,1,c ;clear compiler interrupt flag (level 2)
	retfie f
	opt stack 0
GLOBAL	__end_of_isr
	__end_of_isr:
	signat	_isr,89
	global	___awmod

;; *************** function ___awmod *****************
;; Defined at:
;;		line 8 in file "/opt/microchip/xc8/v1.36/sources/common/awmod.c"
;; Parameters:    Size  Location     Type
;;  dividend        2    8[COMRAM] int 
;;  divisor         2   10[COMRAM] int 
;; Auto vars:     Size  Location     Type
;;  sign            1   13[COMRAM] unsigned char 
;;  counter         1   12[COMRAM] unsigned char 
;; Return value:  Size  Location     Type
;;                  2    8[COMRAM] int 
;; Registers used:
;;		wreg, status,2, status,0
;; Tracked objects:
;;		On entry : 0/0
;;		On exit  : 0/0
;;		Unchanged: 0/0
;; Data sizes:     COMRAM   BANK0   BANK1   BANK2   BANK3   BANK4   BANK5
;;      Params:         4       0       0       0       0       0       0
;;      Locals:         2       0       0       0       0       0       0
;;      Temps:          0       0       0       0       0       0       0
;;      Totals:         6       0       0       0       0       0       0
;;Total ram usage:        6 bytes
;; Hardware stack levels used:    1
;; This function calls:
;;		Nothing
;; This function is called by:
;;		_isr
;; This function uses a non-reentrant model
;;
psect	text4,class=CODE,space=0,reloc=2
	file	"/opt/microchip/xc8/v1.36/sources/common/awmod.c"
	line	8
global __ptext4
__ptext4:
psect	text4
	file	"/opt/microchip/xc8/v1.36/sources/common/awmod.c"
	line	8
	global	__size_of___awmod
	__size_of___awmod	equ	__end_of___awmod-___awmod
	
___awmod:
;incstack = 0
	opt	stack 27
	line	13
	
i2l847:
	movlw	low(0)
	movwf	((c:___awmod@sign)),c
	line	14
	
i2l849:
	btfsc	((c:___awmod@dividend+1)),c,7
	goto	i2u27_40
	goto	i2u27_41

i2u27_41:
	goto	i2l855
i2u27_40:
	line	15
	
i2l851:
	negf	((c:___awmod@dividend)),c
	comf	((c:___awmod@dividend+1)),c
	btfsc	status,0
	incf	((c:___awmod@dividend+1)),c
	line	16
	
i2l853:
	movlw	low(01h)
	movwf	((c:___awmod@sign)),c
	goto	i2l855
	line	17
	
i2l238:
	line	18
	
i2l855:
	btfsc	((c:___awmod@divisor+1)),c,7
	goto	i2u28_40
	goto	i2u28_41

i2u28_41:
	goto	i2l859
i2u28_40:
	line	19
	
i2l857:
	negf	((c:___awmod@divisor)),c
	comf	((c:___awmod@divisor+1)),c
	btfsc	status,0
	incf	((c:___awmod@divisor+1)),c
	goto	i2l859
	
i2l239:
	line	20
	
i2l859:
	movf	((c:___awmod@divisor)),c,w
iorwf	((c:___awmod@divisor+1)),c,w
	btfsc	status,2
	goto	i2u29_41
	goto	i2u29_40

i2u29_41:
	goto	i2l875
i2u29_40:
	line	21
	
i2l861:
	movlw	low(01h)
	movwf	((c:___awmod@counter)),c
	line	22
	goto	i2l865
	
i2l242:
	line	23
	
i2l863:
	bcf	status,0
	rlcf	((c:___awmod@divisor)),c
	rlcf	((c:___awmod@divisor+1)),c
	line	24
	incf	((c:___awmod@counter)),c
	goto	i2l865
	line	25
	
i2l241:
	line	22
	
i2l865:
	
	btfss	((c:___awmod@divisor+1)),c,(15)&7
	goto	i2u30_41
	goto	i2u30_40
i2u30_41:
	goto	i2l863
i2u30_40:
	goto	i2l867
	
i2l243:
	goto	i2l867
	line	26
	
i2l244:
	line	27
	
i2l867:
		movf	((c:___awmod@divisor)),c,w
	subwf	((c:___awmod@dividend)),c,w
	movf	((c:___awmod@divisor+1)),c,w
	subwfb	((c:___awmod@dividend+1)),c,w
	btfss	status,0
	goto	i2u31_41
	goto	i2u31_40

i2u31_41:
	goto	i2l871
i2u31_40:
	line	28
	
i2l869:
	movf	((c:___awmod@divisor)),c,w
	subwf	((c:___awmod@dividend)),c
	movf	((c:___awmod@divisor+1)),c,w
	subwfb	((c:___awmod@dividend+1)),c

	goto	i2l871
	
i2l245:
	line	29
	
i2l871:
	bcf	status,0
	rrcf	((c:___awmod@divisor+1)),c
	rrcf	((c:___awmod@divisor)),c
	line	30
	
i2l873:
	decfsz	((c:___awmod@counter)),c
	
	goto	i2l867
	goto	i2l875
	
i2l246:
	goto	i2l875
	line	31
	
i2l240:
	line	32
	
i2l875:
	movf	((c:___awmod@sign)),c,w
	btfsc	status,2
	goto	i2u32_41
	goto	i2u32_40
i2u32_41:
	goto	i2l879
i2u32_40:
	line	33
	
i2l877:
	negf	((c:___awmod@dividend)),c
	comf	((c:___awmod@dividend+1)),c
	btfsc	status,0
	incf	((c:___awmod@dividend+1)),c
	goto	i2l879
	
i2l247:
	line	34
	
i2l879:
	movff	(c:___awmod@dividend),(c:?___awmod)
	movff	(c:___awmod@dividend+1),(c:?___awmod+1)
	goto	i2l248
	
i2l881:
	line	35
	
i2l248:
	return	;funcret
	opt stack 0
GLOBAL	__end_of___awmod
	__end_of___awmod:
	signat	___awmod,8314
	global	___awdiv

;; *************** function ___awdiv *****************
;; Defined at:
;;		line 8 in file "/opt/microchip/xc8/v1.36/sources/common/awdiv.c"
;; Parameters:    Size  Location     Type
;;  dividend        2    0[COMRAM] int 
;;  divisor         2    2[COMRAM] int 
;; Auto vars:     Size  Location     Type
;;  quotient        2    6[COMRAM] int 
;;  sign            1    5[COMRAM] unsigned char 
;;  counter         1    4[COMRAM] unsigned char 
;; Return value:  Size  Location     Type
;;                  2    0[COMRAM] int 
;; Registers used:
;;		wreg, status,2, status,0
;; Tracked objects:
;;		On entry : 0/0
;;		On exit  : 0/0
;;		Unchanged: 0/0
;; Data sizes:     COMRAM   BANK0   BANK1   BANK2   BANK3   BANK4   BANK5
;;      Params:         4       0       0       0       0       0       0
;;      Locals:         4       0       0       0       0       0       0
;;      Temps:          0       0       0       0       0       0       0
;;      Totals:         8       0       0       0       0       0       0
;;Total ram usage:        8 bytes
;; Hardware stack levels used:    1
;; This function calls:
;;		Nothing
;; This function is called by:
;;		_isr
;; This function uses a non-reentrant model
;;
psect	text5,class=CODE,space=0,reloc=2
	file	"/opt/microchip/xc8/v1.36/sources/common/awdiv.c"
	line	8
global __ptext5
__ptext5:
psect	text5
	file	"/opt/microchip/xc8/v1.36/sources/common/awdiv.c"
	line	8
	global	__size_of___awdiv
	__size_of___awdiv	equ	__end_of___awdiv-___awdiv
	
___awdiv:
;incstack = 0
	opt	stack 27
	line	14
	
i2l803:
	movlw	low(0)
	movwf	((c:___awdiv@sign)),c
	line	15
	
i2l805:
	btfsc	((c:___awdiv@divisor+1)),c,7
	goto	i2u21_40
	goto	i2u21_41

i2u21_41:
	goto	i2l811
i2u21_40:
	line	16
	
i2l807:
	negf	((c:___awdiv@divisor)),c
	comf	((c:___awdiv@divisor+1)),c
	btfsc	status,0
	incf	((c:___awdiv@divisor+1)),c
	line	17
	
i2l809:
	movlw	low(01h)
	movwf	((c:___awdiv@sign)),c
	goto	i2l811
	line	18
	
i2l225:
	line	19
	
i2l811:
	btfsc	((c:___awdiv@dividend+1)),c,7
	goto	i2u22_40
	goto	i2u22_41

i2u22_41:
	goto	i2l817
i2u22_40:
	line	20
	
i2l813:
	negf	((c:___awdiv@dividend)),c
	comf	((c:___awdiv@dividend+1)),c
	btfsc	status,0
	incf	((c:___awdiv@dividend+1)),c
	line	21
	
i2l815:
	movlw	(01h)&0ffh
	xorwf	((c:___awdiv@sign)),c
	goto	i2l817
	line	22
	
i2l226:
	line	23
	
i2l817:
	movlw	high(0)
	movwf	((c:___awdiv@quotient+1)),c
	movlw	low(0)
	movwf	((c:___awdiv@quotient)),c
	line	24
	
i2l819:
	movf	((c:___awdiv@divisor)),c,w
iorwf	((c:___awdiv@divisor+1)),c,w
	btfsc	status,2
	goto	i2u23_41
	goto	i2u23_40

i2u23_41:
	goto	i2l839
i2u23_40:
	line	25
	
i2l821:
	movlw	low(01h)
	movwf	((c:___awdiv@counter)),c
	line	26
	goto	i2l825
	
i2l229:
	line	27
	
i2l823:
	bcf	status,0
	rlcf	((c:___awdiv@divisor)),c
	rlcf	((c:___awdiv@divisor+1)),c
	line	28
	incf	((c:___awdiv@counter)),c
	goto	i2l825
	line	29
	
i2l228:
	line	26
	
i2l825:
	
	btfss	((c:___awdiv@divisor+1)),c,(15)&7
	goto	i2u24_41
	goto	i2u24_40
i2u24_41:
	goto	i2l823
i2u24_40:
	goto	i2l827
	
i2l230:
	goto	i2l827
	line	30
	
i2l231:
	line	31
	
i2l827:
	bcf	status,0
	rlcf	((c:___awdiv@quotient)),c
	rlcf	((c:___awdiv@quotient+1)),c
	line	32
	
i2l829:
		movf	((c:___awdiv@divisor)),c,w
	subwf	((c:___awdiv@dividend)),c,w
	movf	((c:___awdiv@divisor+1)),c,w
	subwfb	((c:___awdiv@dividend+1)),c,w
	btfss	status,0
	goto	i2u25_41
	goto	i2u25_40

i2u25_41:
	goto	i2l835
i2u25_40:
	line	33
	
i2l831:
	movf	((c:___awdiv@divisor)),c,w
	subwf	((c:___awdiv@dividend)),c
	movf	((c:___awdiv@divisor+1)),c,w
	subwfb	((c:___awdiv@dividend+1)),c

	line	34
	
i2l833:
	bsf	(0+(0/8)+(c:___awdiv@quotient)),c,(0)&7
	goto	i2l835
	line	35
	
i2l232:
	line	36
	
i2l835:
	bcf	status,0
	rrcf	((c:___awdiv@divisor+1)),c
	rrcf	((c:___awdiv@divisor)),c
	line	37
	
i2l837:
	decfsz	((c:___awdiv@counter)),c
	
	goto	i2l827
	goto	i2l839
	
i2l233:
	goto	i2l839
	line	38
	
i2l227:
	line	39
	
i2l839:
	movf	((c:___awdiv@sign)),c,w
	btfsc	status,2
	goto	i2u26_41
	goto	i2u26_40
i2u26_41:
	goto	i2l843
i2u26_40:
	line	40
	
i2l841:
	negf	((c:___awdiv@quotient)),c
	comf	((c:___awdiv@quotient+1)),c
	btfsc	status,0
	incf	((c:___awdiv@quotient+1)),c
	goto	i2l843
	
i2l234:
	line	41
	
i2l843:
	movff	(c:___awdiv@quotient),(c:?___awdiv)
	movff	(c:___awdiv@quotient+1),(c:?___awdiv+1)
	goto	i2l235
	
i2l845:
	line	42
	
i2l235:
	return	;funcret
	opt stack 0
GLOBAL	__end_of___awdiv
	__end_of___awdiv:
	signat	___awdiv,8314
	GLOBAL	__activetblptr
__activetblptr	EQU	0
	psect	intsave_regs,class=BIGRAM,space=1,noexec
	PSECT	rparam,class=COMRAM,space=1,noexec
	GLOBAL	__Lrparam
	FNCONF	rparam,??,?
	GLOBAL	___rparam_used
	___rparam_used EQU 1
	GLOBAL	___param_bank
	___param_bank EQU 16
GLOBAL	__Lparam, __Hparam
GLOBAL	__Lrparam, __Hrparam
__Lparam	EQU	__Lrparam
__Hparam	EQU	__Hrparam
       psect   temp,common,ovrld,class=COMRAM,space=1
	global	btemp
btemp:
	ds	1
	global	int$flags
	int$flags	set btemp
	end
